(dp0
S'population'
p1
(lp2
sS'fitness'
p3
(lp4
(dp5
S'wspr'
p6
cnumpy.core.multiarray
scalar
p7
(cnumpy
dtype
p8
(S'f8'
p9
I0
I1
tp10
Rp11
(I3
S'<'
p12
NNNI-1
I-1
I0
tp13
bS'zp\\\x7f\xb9\xed\xd3?'
p14
tp15
Rp16
sS'index'
p17
I0
sS'wmak'
p18
F0.27580597904510956
sS'spread'
p19
g16
sS'makespan'
p20
F91.01597308488616
sS'wres'
p21
g7
(g8
(S'i4'
p22
I0
I1
tp23
Rp24
(I3
S'<'
p25
NNNI-1
I-1
I0
tp26
bS'\x00\x00\x00\x00'
p27
tp28
Rp29
sS'total'
p30
g7
(g11
S'\xf7\xff\xe9\xbe\xaf\r\xc9?'
p31
tp32
Rp33
sS'resources'
p34
g29
sa(dp35
g6
g7
(g11
S'\x0e\xc9\xa7=\x1c\xd7\xd8?'
p36
tp37
Rp38
sg17
I1
sg18
F0.28319252828491964
sg19
g38
sg20
F93.45353433402347
sg21
g7
(g24
S'\x00\x00\x00\x00'
p39
tp40
Rp41
sg30
g7
(g11
S'KH\x03\xdd\x9f\xa4\xcc?'
p42
tp43
Rp44
sg34
g41
sa(dp45
g6
g7
(g11
S'\xd1\x9a\xcb\xfdJF\xcd?'
p46
tp47
Rp48
sg17
I2
sg18
F0.2961461885940148
sg19
g48
sg20
F97.72824223602488
sg21
g7
(g24
S'\x00\x00\x00\x00'
p49
tp50
Rp51
sg30
g7
(g11
S'\x94\xfag\xc2\xcdd\xc6?'
p52
tp53
Rp54
sg34
g51
sa(dp55
g6
g7
(g11
S'\xb4\xbcnm%\xaa\xd5?'
p56
tp57
Rp58
sg17
I3
sg18
F0.25118956647217505
sg19
g58
sg20
F82.89255693581777
sg21
g7
(g24
S'\x00\x00\x00\x00'
p59
tp60
Rp61
sg30
g7
(g11
S'\x02\x85x8\x17)\xc9?'
p62
tp63
Rp64
sg34
g61
sa(dp65
g6
g7
(g11
S'\xac/f\xc6\xa7\xba\xce?'
p66
tp67
Rp68
sg17
I4
sg18
F0.28142125290168774
sg19
g68
sg20
F92.86901345755696
sg21
g7
(g24
S'\x00\x00\x00\x00'
p69
tp70
Rp71
sg30
g7
(g11
S'A\xd8f\xc8\x16@\xc6?'
p72
tp73
Rp74
sg34
g71
sa(dp75
g6
g7
(g11
S'\xa0\x1c\xb9(o\x0b\xd4?'
p76
tp77
Rp78
sg17
I5
sg18
F0.3185517723822072
sg19
g78
sg20
F105.12208488612838
sg21
g7
(g24
S'\x00\x00\x00\x00'
p79
tp80
Rp81
sg30
g7
(g11
S'\x149\x8f\x16d\xf4\xca?'
p82
tp83
Rp84
sg34
g81
sa(dp85
g6
g7
(g11
S'\xca\xf4a\x13\xbc\x1f\xd3?'
p86
tp87
Rp88
sg17
I6
sg18
F0.2925914026392287
sg19
g88
sg20
F96.55516287094548
sg21
g7
(g24
S'\x00\x00\x00\x00'
p89
tp90
Rp91
sg30
g7
(g11
S'\xb4}\xd3\x93\xb3;\xc9?'
p92
tp93
Rp94
sg34
g91
sa(dp95
g6
g7
(g11
S'j\xf9\x05\x853\xea\xd2?'
p96
tp97
Rp98
sg17
I7
sg18
F0.31718935629587813
sg19
g98
sg20
F104.67248757763979
sg21
g7
(g24
S'\x00\x00\x00\x00'
p99
tp100
Rp101
sg30
g7
(g11
S'\xfc\xff\x00\x12\xb0$\xca?'
p102
tp103
Rp104
sg34
g101
sa(dp105
g6
g7
(g11
S'\xb7\x9c,\xba\xe6\xcd\xd8?'
p106
tp107
Rp108
sg17
I8
sg18
F0.27709929653679655
sg19
g108
sg20
F91.44276785714287
sg21
g7
(g24
S'\x00\x00\x00\x00'
p109
tp110
Rp111
sg30
g7
(g11
S'x3\xd8F\xee[\xcc?'
p112
tp113
Rp114
sg34
g111
sa(dp115
g6
g7
(g11
S'\xa1\x1fo\x97\x8d\xf2\xd5?'
p116
tp117
Rp118
sg17
I9
sg18
F0.2523183700357613
sg19
g118
sg20
F83.26506211180123
sg21
g7
(g24
S'\x00\x00\x00\x00'
p119
tp120
Rp121
sg30
g7
(g11
S'\x84\xb7\xde\x06\xb1e\xc9?'
p122
tp123
Rp124
sg34
g121
sa(dp125
g6
g7
(g11
S'\xa0\x7f\xd4a\xb2N\xcd?'
p126
tp127
Rp128
sg17
I10
sg18
F0.29637768837442763
sg19
g128
sg20
F97.80463716356113
sg21
g7
(g24
S'\x00\x00\x00\x00'
p129
tp130
Rp131
sg30
g7
(g11
S'\xe3\xac\xbf5"j\xc6?'
p132
tp133
Rp134
sg34
g131
sa(dp135
g6
g7
(g11
S'\xee\xe3\xbb\x94\x97;\xd4?'
p136
tp137
Rp138
sg17
I11
sg18
F0.2512244526005395
sg19
g138
sg20
F82.90406935817803
sg21
g7
(g24
S'\x00\x00\x00\x00'
p139
tp140
Rp141
sg30
g7
(g11
S'P\xebw4\x1a5\xc8?'
p142
tp143
Rp144
sg34
g141
sa(dp145
g6
g7
(g11
S'`\x13\xbeXp;\xd5?'
p146
tp147
Rp148
sg17
I12
sg18
F0.2553838802099671
sg19
g148
sg20
F84.27668046928915
sg21
g7
(g24
S'\x00\x00\x00\x00'
p149
tp150
Rp151
sg30
g7
(g11
S'(IfQ\x19\r\xc9?'
p152
tp153
Rp154
sg34
g151
sa(dp155
g6
g7
(g11
S"\x94'r\xdd=E\xd3?"
p156
tp157
Rp158
sg17
I13
sg18
F0.316580083443127
sg19
g158
sg20
F104.4714275362319
sg21
g7
(g24
S'\x00\x00\x00\x00'
p159
tp160
Rp161
sg30
g7
(g11
S'\x00\x1b\xca\xfb\xb9Z\xca?'
p162
tp163
Rp164
sg34
g161
sa(dp165
g6
g7
(g11
S'\x8aJc\xcb\x92X\xd0?'
p166
tp167
Rp168
sg17
I14
sg18
F0.2970571893887112
sg19
g168
sg20
F98.02887249827468
sg21
g7
(g24
S'\x00\x00\x00\x00'
p169
tp170
Rp171
sg30
g7
(g11
S'\x18k+M_\x92\xc7?'
p172
tp173
Rp174
sg34
g171
sa(dp175
g6
g7
(g11
S'\x89\xb0g\xb8\xbbX\xce?'
p176
tp177
Rp178
sg17
I15
sg18
F0.30039236307171097
sg19
g178
sg20
F99.12947981366462
sg21
g7
(g24
S'\x00\x00\x00\x00'
p179
tp180
Rp181
sg30
g7
(g11
S'\xa4\xa3\\\xd5\xa9\xee\xc6?'
p182
tp183
Rp184
sg34
g181
sa(dp185
g6
g7
(g11
S'\x8aH\xd7\x1c\xacB\xd2?'
p186
tp187
Rp188
sg17
I16
sg18
F0.31622571052136283
sg19
g188
sg20
F104.35448447204973
sg21
g7
(g24
S'\x00\x00\x00\x00'
p189
tp190
Rp191
sg30
g7
(g11
S'<\x84\xb3\xeay\xaa\xc9?'
p192
tp193
Rp194
sg34
g191
sa(dp195
g6
g7
(g11
S'(0\xe2\x89m\xa9\xd7?'
p196
tp197
Rp198
sg17
I17
sg18
F0.266455063052889
sg19
g198
sg20
F87.93017080745338
sg21
g7
(g24
S'\x00\x00\x00\x00'
p199
tp200
Rp201
sg30
g7
(g11
S'\xd223b\xaf$\xcb?'
p202
tp203
Rp204
sg34
g201
sa(dp205
g6
g7
(g11
S'i\x18x\xe9\xd6\xc3\xd5?'
p206
tp207
Rp208
sg17
I18
sg18
F0.25582269433465077
sg19
g208
sg20
F84.42148913043475
sg21
g7
(g24
S'\x00\x00\x00\x00'
p209
tp210
Rp211
sg30
g7
(g11
S'\x1f\xb8\xef_\xd3l\xc9?'
p212
tp213
Rp214
sg34
g211
sa(dp215
g6
g7
(g11
S'\xcb\xd6\xffU/\x94\xd1?'
p216
tp217
Rp218
sg17
I19
sg18
F0.30402707875860047
sg19
g218
sg20
F100.32893599033815
sg21
g7
(g24
S'\x00\x00\x00\x00'
p219
tp220
Rp221
sg30
g7
(g11
S'\x803\xba\xe2\xe8\xb0\xc8?'
p222
tp223
Rp224
sg34
g221
sa(dp225
g6
g7
(g11
S'[\xbc\x13e\xe9u\xd8?'
p226
tp227
Rp228
sg17
I20
sg18
F0.2763991153773762
sg19
g228
sg20
F91.21170807453416
sg21
g7
(g24
S'\x00\x00\x00\x00'
p229
tp230
Rp231
sg30
g7
(g11
S'\r\xe5?\x8a\x9f\x19\xcc?'
p232
tp233
Rp234
sg34
g231
sa(dp235
g6
g7
(g11
S'\xa6\xff/\xff\xd1*\xd7?'
p236
tp237
Rp238
sg17
I21
sg18
F0.27841621180751625
sg19
g238
sg20
F91.87734989648035
sg21
g7
(g24
S'\x00\x00\x00\x00'
p239
tp240
Rp241
sg30
g7
(g11
S'\x0c\x9e0|\xedR\xcb?'
p242
tp243
Rp244
sg34
g241
sa(dp245
g6
g7
(g11
S'\xdfjA\xf9=7\xd6?'
p246
tp247
Rp248
sg17
I22
sg18
F0.266040725578769
sg19
g248
sg20
F87.79343944099378
sg21
g7
(g24
S'\x00\x00\x00\x00'
p249
tp250
Rp251
sg30
g7
(g11
S'@\xeavo^)\xca?'
p252
tp253
Rp254
sg34
g251
sa(dp255
g6
g7
(g11
S'\x11\xef\xc2iU\xea\xd0?'
p256
tp257
Rp258
sg17
I23
sg18
F0.30207478145847705
sg19
g258
sg20
F99.68467788129743
sg21
g7
(g24
S'\x00\x00\x00\x00'
p259
tp260
Rp261
sg30
g7
(g11
S'D4\x0f\xebY*\xc8?'
p262
tp263
Rp264
sg34
g261
sa(dp265
g6
g7
(g11
S'\xb2>\xbcCp\xd0\xcd?'
p266
tp267
Rp268
sg17
I24
sg18
F0.29337498797498807
sg19
g268
sg20
F96.81374603174606
sg21
g7
(g24
S'\x00\x00\x00\x00'
p269
tp270
Rp271
sg30
g7
(g11
S'\x06\x9baX\x95t\xc6?'
p272
tp273
Rp274
sg34
g271
sa(dp275
g6
g7
(g11
S'smh\xf3\xfa\xa6\xce?'
p276
tp277
Rp278
sg17
I25
sg18
F0.29729644268774713
sg19
g278
sg20
F98.10782608695655
sg21
g7
(g24
S'\x00\x00\x00\x00'
p279
tp280
Rp281
sg30
g7
(g11
S'\x91i\xe5\x16\xee\xe6\xc6?'
p282
tp283
Rp284
sg34
g281
sa(dp285
g6
g7
(g11
S'\xbe{\xda\xc4\x05\x0b\xd1?'
p286
tp287
Rp288
sg17
I26
sg18
F0.28539634753330406
sg19
g288
sg20
F94.18079468599034
sg21
g7
(g24
S'\x00\x00\x00\x00'
p289
tp290
Rp291
sg30
g7
(g11
S'VDi\x8a\xf8\x89\xc7?'
p292
tp293
Rp294
sg34
g291
sa(dp295
g6
g7
(g11
S'\x80\xe3d[\xa3\xc8\xd8?'
p296
tp297
Rp298
sg17
I27
sg18
F0.262924597946337
sg19
g298
sg20
F86.7651173222912
sg21
g7
(g24
S'\x00\x00\x00\x00'
p299
tp300
Rp301
sg30
g7
(g11
S'\xa2\xa5-\xb3\x98\xbd\xcb?'
p302
tp303
Rp304
sg34
g301
sa(dp305
g6
g7
(g11
S'l\xc5\x01\x13=\xb2\xd8?'
p306
tp307
Rp308
sg17
I28
sg18
F0.2702704670932933
sg19
g308
sg20
F89.18925414078677
sg21
g7
(g24
S'\x00\x00\x00\x00'
p309
tp310
Rp311
sg30
g7
(g11
S'\x16\x1a6b\xe6\xfe\xcb?'
p312
tp313
Rp314
sg34
g311
sa(dp315
g6
g7
(g11
S'\xbcd5\xc8\x88\x91\xcd?'
p316
tp317
Rp318
sg17
I29
sg18
F0.29581140284835944
sg19
g318
sg20
F97.61776293995861
sg21
g7
(g24
S'\x00\x00\x00\x00'
p319
tp320
Rp321
sg30
g7
(g11
S'\xfc6=::z\xc6?'
p322
tp323
Rp324
sg34
g321
sa(dp325
g6
g7
(g11
S'\xbd\xb4f\x9ep\xb4\xd3?'
p326
tp327
Rp328
sg17
I30
sg18
F0.31807541669280803
sg19
g328
sg20
F104.96488750862666
sg21
g7
(g24
S'\x00\x00\x00\x00'
p329
tp330
Rp331
sg30
g7
(g11
S'\x8c`\xfe\x121\xb5\xca?'
p332
tp333
Rp334
sg34
g331
sa(dp335
g6
g7
(g11
S'\xc4a\xdb\x1cu\xde\xd7?'
p336
tp337
Rp338
sg17
I31
sg18
F0.263238453374323
sg19
g338
sg20
F86.86868961352658
sg21
g7
(g24
S'\x00\x00\x00\x00'
p339
tp340
Rp341
sg30
g7
(g11
S'\xf4dIy\xe7$\xcb?'
p342
tp343
Rp344
sg34
g341
sa(dp345
g6
g7
(g11
S'3\xd5S&<\r\xd6?'
p346
tp347
Rp348
sg17
I32
sg18
F0.2585176830415961
sg19
g348
sg20
F85.31083540372671
sg21
g7
(g24
S'\x00\x00\x00\x00'
p349
tp350
Rp351
sg30
g7
(g11
S'\xcd\x8b\x91D1\xbb\xc9?'
p352
tp353
Rp354
sg34
g351
sa(dp355
g6
g7
(g11
S'\x01\xebdR\xde$\xd5?'
p356
tp357
Rp358
sg17
I33
sg18
F0.25449098124098113
sg19
g358
sg20
F83.98202380952378
sg21
g7
(g24
S'\x00\x00\x00\x00'
p359
tp360
Rp361
sg30
g7
(g11
S'2`0\x93L\xf4\xc8?'
p362
tp363
Rp364
sg34
g361
sa(dp365
g6
g7
(g11
S'\xe1`\xb9\x89\xd97\xd7?'
p366
tp367
Rp368
sg17
I34
sg18
F0.2927607895727462
sg19
g368
sg20
F96.61106055900625
sg21
g7
(g24
S'\x00\x00\x00\x00'
p369
tp370
Rp371
sg30
g7
(g11
S'\x96E\x9c\x86K\xf8\xcb?'
p372
tp373
Rp374
sg34
g371
sa(dp375
g6
g7
(g11
S'\x03_F\xeb\xc4A\xd7?'
p376
tp377
Rp378
sg17
I35
sg18
F0.2538311264822135
sg19
g378
sg20
F83.76427173913045
sg21
g7
(g24
S'\x00\x00\x00\x00'
p379
tp380
Rp381
sg30
g7
(g11
S'\xc7\x06\x028\xb1U\xca?'
p382
tp383
Rp384
sg34
g381
sa(dp385
g6
g7
(g11
S'\xf8\xef\x01\xbf\xc0\x18\xd6?'
p386
tp387
Rp388
sg17
I36
sg18
F0.2765817036827906
sg19
g388
sg20
F91.2719622153209
sg21
g7
(g24
S'\x00\x00\x00\x00'
p389
tp390
Rp391
sg30
g7
(g11
S'\xd2-V\xa9-\x88\xca?'
p392
tp393
Rp394
sg34
g391
sa(dp395
g6
g7
(g11
S'\x96\xf5Y\xa1\x93\xb4\xd0?'
p396
tp397
Rp398
sg17
I37
sg18
F0.27888398111550294
sg19
g398
sg20
F92.03171376811598
sg21
g7
(g24
S'\x00\x00\x00\x00'
p399
tp400
Rp401
sg30
g7
(g11
S'\xed!\xf275\t\xc7?'
p402
tp403
Rp404
sg34
g401
sa(dp405
g6
g7
(g11
S'\xec\xb5\xa0\x9b\x83\xf4\xd6?'
p406
tp407
Rp408
sg17
I38
sg18
F0.2693477649162432
sg19
g408
sg20
F88.88476242236025
sg21
g7
(g24
S'\x00\x00\x00\x00'
p409
tp410
Rp411
sg30
g7
(g11
S'j\xf4\xad\x02\xac\xcb\xca?'
p412
tp413
Rp414
sg34
g411
sa(dp415
g6
g7
(g11
S'\x1c0\xd1\xd2\xa0\x9f\xd8?'
p416
tp417
Rp418
sg17
I39
sg18
F0.26957886577995277
sg19
g418
sg20
F88.96102570738441
sg21
g7
(g24
S'\x00\x00\x00\x00'
p419
tp420
Rp421
sg30
g7
(g11
S'H\x14\xea[\xf0\xea\xcb?'
p422
tp423
Rp424
sg34
g421
sa(dp425
g6
g7
(g11
S'\xf5\x89\x99b\xa7y\xd0?'
p426
tp427
Rp428
sg17
I40
sg18
F0.2965790466779598
sg19
g428
sg20
F97.87108540372674
sg21
g7
(g24
S'\x00\x00\x00\x00'
p429
tp430
Rp431
sg30
g7
(g11
S'07m\x0b4\xa3\xc7?'
p432
tp433
Rp434
sg34
g431
sa(dp435
g6
g7
(g11
S'\xbd\xb1\xc6\x8a\xa06\xcf?'
p436
tp437
Rp438
sg17
I41
sg18
F0.3119993631971895
sg19
g438
sg20
F102.95978985507254
sg21
g7
(g24
S'\x00\x00\x00\x00'
p439
tp440
Rp441
sg30
g7
(g11
S'\xa6\xe6yLh\xb7\xc7?'
p442
tp443
Rp444
sg34
g441
sa(dp445
g6
g7
(g11
S'\xf1X\xd6\x99V\x06\xd0?'
p446
tp447
Rp448
sg17
I42
sg18
F0.279061231884058
sg19
g448
sg20
F92.09020652173915
sg21
g7
(g24
S'\x00\x00\x00\x00'
p449
tp450
Rp451
sg30
g7
(g11
S'\xa9\xe6O)\xfc\x96\xc6?'
p452
tp453
Rp454
sg34
g451
sa(dp455
g6
g7
(g11
S'\xbcd5\xc8\x88\x91\xcd?'
p456
tp457
Rp458
sg17
I43
sg18
F0.29581140284835944
sg19
g458
sg20
F97.61776293995861
sg21
g7
(g24
S'\x00\x00\x00\x00'
p459
tp460
Rp461
sg30
g7
(g11
S'\xfc6=::z\xc6?'
p462
tp463
Rp464
sg34
g461
sa(dp465
g6
g7
(g11
S'"IP\x12\xf2n\xd3?'
p466
tp467
Rp468
sg17
I44
sg18
F0.31586585733107475
sg19
g468
sg20
F104.23573291925467
sg21
g7
(g24
S'\x00\x00\x00\x00'
p469
tp470
Rp471
sg30
g7
(g11
S'\x08\x04gU\xban\xca?'
p472
tp473
Rp474
sg34
g471
sa(dp475
g6
g7
(g11
S't\xbc\x81\xd5\x06\xd8\xce?'
p476
tp477
Rp478
sg17
I45
sg18
F0.29794222765961903
sg19
g478
sg20
F98.32093512767428
sg21
g7
(g24
S'\x00\x00\x00\x00'
p479
tp480
Rp481
sg30
g7
(g11
S'\xdb\xc8&!U\xfe\xc6?'
p482
tp483
Rp484
sg34
g481
sa(dp485
g6
g7
(g11
S'+\x81\xea\xcc\xa6e\xd1?'
p486
tp487
Rp488
sg17
I46
sg18
F0.294796618357488
sg19
g488
sg20
F97.28288405797105
sg21
g7
(g24
S'\x00\x00\x00\x00'
p489
tp490
Rp491
sg30
g7
(g11
S' \x85\x14\xf5\x10-\xc8?'
p492
tp493
Rp494
sg34
g491
sa(dp495
g6
g7
(g11
S'`"\x89\x90\x07T\xd6?'
p496
tp497
Rp498
sg17
I47
sg18
F0.280775707384403
sg19
g498
sg20
F92.65598343685299
sg21
g7
(g24
S'\x00\x00\x00\x00'
p499
tp500
Rp501
sg30
g7
(g11
S'b\xc9\xcf}\x81\xdd\xca?'
p502
tp503
Rp504
sg34
g501
sa(dp505
g6
g7
(g11
S'\xdcK\x0c3(\xb8\xd0?'
p506
tp507
Rp508
sg17
I48
sg18
F0.28930288652571273
sg19
g508
sg20
F95.4699525534852
sg21
g7
(g24
S'\x00\x00\x00\x00'
p509
tp510
Rp511
sg30
g7
(g11
S'T:\xbe\xa2e}\xc7?'
p512
tp513
Rp514
sg34
g511
sa(dp515
g6
g7
(g11
S'\xb7k\x03#\xcad\xd8?'
p516
tp517
Rp518
sg17
I49
sg18
F0.27680458309806133
sg19
g518
sg20
F91.34551242236024
sg21
g7
(g24
S'\x00\x00\x00\x00'
p519
tp520
Rp521
sg30
g7
(g11
S'k\x9dN#\xa3\x12\xcc?'
p522
tp523
Rp524
sg34
g521
sa(dp525
g6
g7
(g11
S'i\xbd\x0f\x81Ce\xd0?'
p526
tp527
Rp528
sg17
I50
sg18
F0.2968274876090094
sg19
g528
sg20
F97.9530709109731
sg21
g7
(g24
S'\x00\x00\x00\x00'
p529
tp530
Rp531
sg30
g7
(g11
S'\xae\x19\xae\xd0R\x98\xc7?'
p532
tp533
Rp534
sg34
g531
sa(dp535
g6
g7
(g11
S'\xa0\x93>\x0c\x93\x91\xd8?'
p536
tp537
Rp538
sg17
I51
sg18
F0.2781921387790953
sg19
g538
sg20
F91.80340579710145
sg21
g7
(g24
S'\x00\x00\x00\x00'
p539
tp540
Rp541
sg30
g7
(g11
S'\xfc\xa1\x81L\xa6?\xcc?'
p542
tp543
Rp544
sg34
g541
sa(dp545
g6
g7
(g11
S'\xaa\x93ay\x0fJ\xd0?'
p546
tp547
Rp548
sg17
I52
sg18
F0.3068552423824164
sg19
g548
sg20
F101.26222998619741
sg21
g7
(g24
S'\x00\x00\x00\x00'
p549
tp550
Rp551
sg30
g7
(g11
S'\xabL\\\xc3\xb7\xf3\xc7?'
p552
tp553
Rp554
sg34
g551
sa(dp555
g6
g7
(g11
S'L\xa3\xdc\x03\x9d\xc0\xd7?'
p556
tp557
Rp558
sg17
I53
sg18
F0.26537528494050217
sg19
g558
sg20
F87.57384403036572
sg21
g7
(g24
S'\x00\x00\x00\x00'
p559
tp560
Rp561
sg30
g7
(g11
S't\xd5\xe7\x16Y(\xcb?'
p562
tp563
Rp564
sg34
g561
sa(dp565
g6
g7
(g11
S'\xed*<`\x8f\x00\xd8?'
p566
tp567
Rp568
sg17
I54
sg18
F0.26271354330049973
sg19
g568
sg20
F86.69546928916492
sg21
g7
(g24
S'\x00\x00\x00\x00'
p569
tp570
Rp571
sg30
g7
(g11
S'\xf6L\xf0\xe4\xe75\xcb?'
p572
tp573
Rp574
sg34
g571
sa(dp575
g6
g7
(g11
S'\xc3\xd7T\xf2hH\xcf?'
p576
tp577
Rp578
sg17
I55
sg18
F0.27954902126858655
sg19
g578
sg20
F92.25117701863357
sg21
g7
(g24
S'\x00\x00\x00\x00'
p579
tp580
Rp581
sg30
g7
(g11
S'\x99\xfb\xc5\x08\xe4Z\xc6?'
p582
tp583
Rp584
sg34
g581
sa(dp585
g6
g7
(g11
S',\xad\xa72Bx\xd5?'
p586
tp587
Rp588
sg17
I56
sg18
F0.2656332266767049
sg19
g588
sg20
F87.65896480331261
sg21
g7
(g24
S'\x00\x00\x00\x00'
p589
tp590
Rp591
sg30
g7
(g11
S'o\xe6\xfcw\x98\xa5\xc9?'
p592
tp593
Rp594
sg34
g591
sa(dp595
g6
g7
(g11
S']\xf8G\xc4\xc6\xf3\xd1?'
p596
tp597
Rp598
sg17
I57
sg18
F0.2797852217830479
sg19
g598
sg20
F92.3291231884058
sg21
g7
(g24
S'\x00\x00\x00\x00'
p599
tp600
Rp601
sg30
g7
(g11
S'\xc3\t\x19\x07\xda\xe7\xc7?'
p602
tp603
Rp604
sg34
g601
sa(dp605
g6
g7
(g11
S'\x1b\xb0\x99\xdc\xaeK\xd8?'
p606
tp607
Rp608
sg17
I58
sg18
F0.27790215822824516
sg19
g608
sg20
F91.70771221532091
sg21
g7
(g24
S'\x00\x00\x00\x00'
p609
tp610
Rp611
sg30
g7
(g11
S'vu\x94T\xe3\r\xcc?'
p612
tp613
Rp614
sg34
g611
sa(dp615
g6
g7
(g11
S'l=\xd5>L\xf2\xcd?'
p616
tp617
Rp618
sg17
I59
sg18
F0.29622647437103955
sg19
g618
sg20
F97.75473654244306
sg21
g7
(g24
S'\x00\x00\x00\x00'
p619
tp620
Rp621
sg30
g7
(g11
S'(\xc1\x8c\x01\x04\x9f\xc6?'
p622
tp623
Rp624
sg34
g621
sa(dp625
g6
g7
(g11
S'\x1dH\xbb\x9e\xd6\x95\xcf?'
p626
tp627
Rp628
sg17
I60
sg18
F0.2796211901624946
sg19
g628
sg20
F92.27499275362322
sg21
g7
(g24
S'\x00\x00\x00\x00'
p629
tp630
Rp631
sg30
g7
(g11
S'\xb8!\xbf\x0e}u\xc6?'
p632
tp633
Rp634
sg34
g631
sa(dp635
g6
g7
(g11
S'3\x16\xf2K\x18\xcc\xd0?'
p636
tp637
Rp638
sg17
I61
sg18
F0.2992479358805448
sg19
g638
sg20
F98.75181884057979
sg21
g7
(g24
S'\x00\x00\x00\x00'
p639
tp640
Rp641
sg30
g7
(g11
S'\xd6~\xa1\xbdP\xf7\xc7?'
p642
tp643
Rp644
sg34
g641
sa(dp645
g6
g7
(g11
S'\xea\xf2\x17\xac\xe6\xa8\xd0?'
p646
tp647
Rp648
sg17
I62
sg18
F0.2816566038229082
sg19
g648
sg20
F92.9466792615597
sg21
g7
(g24
S'\x00\x00\x00\x00'
p649
tp650
Rp651
sg30
g7
(g11
S'\xde)\x15e\xb5\x1f\xc7?'
p652
tp653
Rp654
sg34
g651
sa(dp655
g6
g7
(g11
S'\x9b\xd1\xe3\xaf\xde\xb5\xd7?'
p656
tp657
Rp658
sg17
I63
sg18
F0.26889818056339787
sg19
g658
sg20
F88.7363995859213
sg21
g7
(g24
S'\x00\x00\x00\x00'
p659
tp660
Rp661
sg30
g7
(g11
S'ol\x81D\xaaG\xcb?'
p662
tp663
Rp664
sg34
g661
sa(dp665
g6
g7
(g11
S'\xcc\x7fW\r\xfa\xa6\xd1?'
p666
tp667
Rp668
sg17
I64
sg18
F0.3142890007737835
sg19
g668
sg20
F103.71537025534856
sg21
g7
(g24
S'\x00\x00\x00\x00'
p669
tp670
Rp671
sg30
g7
(g11
S'\xe0\xcf\x87q\x86-\xc9?'
p672
tp673
Rp674
sg34
g671
sa(dp675
g6
g7
(g11
S'\xb8\xe5!EC\xe9\xd7?'
p676
tp677
Rp678
sg17
I65
sg18
F0.28028223853441236
sg19
g678
sg20
F92.49313871635609
sg21
g7
(g24
S'\x00\x00\x00\x00'
p679
tp680
Rp681
sg30
g7
(g11
S'\x85\xe0\xc7tE\xe6\xcb?'
p682
tp683
Rp684
sg34
g681
sa(dp685
g6
g7
(g11
S'\xeeg\xd23\x89\xf9\xd0?'
p686
tp687
Rp688
sg17
I66
sg18
F0.276280681033942
sg19
g688
sg20
F91.17262474120086
sg21
g7
(g24
S'\x00\x00\x00\x00'
p689
tp690
Rp691
sg30
g7
(g11
S'\xc9by\xe9\xbe\x1a\xc7?'
p692
tp693
Rp694
sg34
g691
sa(dp695
g6
g7
(g11
S'\x0c@X\xc0.}\xd6?'
p696
tp697
Rp698
sg17
I67
sg18
F0.2591000486228748
sg19
g698
sg20
F85.50301604554868
sg21
g7
(g24
S'\x00\x00\x00\x00'
p699
tp700
Rp701
sg30
g7
(g11
S'\xf3\xdc\x19j/\x0c\xca?'
p702
tp703
Rp704
sg34
g701
sa(dp705
g6
g7
(g11
S'_t\xf0\x1f\xfe\xac\xd8?'
p706
tp707
Rp708
sg17
I68
sg18
F0.26658965326139245
sg19
g708
sg20
F87.9745855762595
sg21
g7
(g24
S'\x00\x00\x00\x00'
p709
tp710
Rp711
sg30
g7
(g11
S'L\xeaS\xc82\xd3\xcb?'
p712
tp713
Rp714
sg34
g711
sa(dp715
g6
g7
(g11
S'.2\xe9\xc9t\x01\xd8?'
p716
tp717
Rp718
sg17
I69
sg18
F0.2669900976640106
sg19
g718
sg20
F88.1067322291235
sg21
g7
(g24
S'\x00\x00\x00\x00'
p719
tp720
Rp721
sg30
g7
(g11
S'P<\xe9\xf26e\xcb?'
p722
tp723
Rp724
sg34
g721
sa(dp725
g6
g7
(g11
S'j\xc5\x01\x13=\xb2\xd8?'
p726
tp727
Rp728
sg17
I70
sg18
F0.277120882740448
sg19
g728
sg20
F91.44989130434783
sg21
g7
(g24
S'\x00\x00\x00\x00'
p729
tp730
Rp731
sg30
g7
(g11
S'\xf2J\xbd\x88\xb9I\xcc?'
p732
tp733
Rp734
sg34
g731
sa(dp735
g6
g7
(g11
S'\xc0\xb0g\x1cj\x01\xd1?'
p736
tp737
Rp738
sg17
I71
sg18
F0.28775324727607343
sg19
g738
sg20
F94.95857160110423
sg21
g7
(g24
S'\x00\x00\x00\x00'
p739
tp740
Rp741
sg30
g7
(g11
S'\xe6\xd9T#O\x9d\xc7?'
p742
tp743
Rp744
sg34
g741
sa(dp745
g6
g7
(g11
S'(\x89\xdf\x00\x91\xf0\xd6?'
p746
tp747
Rp748
sg17
I72
sg18
F0.2578756268691052
sg19
g748
sg20
F85.09895686680471
sg21
g7
(g24
S'\x00\x00\x00\x00'
p749
tp750
Rp751
sg30
g7
(g11
S'Nu\xe3\xd9\xbbK\xca?'
p752
tp753
Rp754
sg34
g751
sa(dp755
g6
g7
(g11
S'\xaf\xd7\xe9\xaaN:\xce?'
p756
tp757
Rp758
sg17
I73
sg18
F0.2925212434908088
sg19
g758
sg20
F96.53201035196692
sg21
g7
(g24
S'\x00\x00\x00\x00'
p759
tp760
Rp761
sg30
g7
(g11
S'&\xe3\xaa<\x8c\x8e\xc6?'
p762
tp763
Rp764
sg34
g761
sa(dp765
g6
g7
(g11
S'\x9c\xec}o?\x9a\xd0?'
p766
tp767
Rp768
sg17
I74
sg18
F0.30992457285066005
sg19
g768
sg20
F102.27510904071781
sg21
g7
(g24
S'\x00\x00\x00\x00'
p769
tp770
Rp771
sg30
g7
(g11
S'\xffjn\x8a\xb3J\xc8?'
p772
tp773
Rp774
sg34
g771
sa(dp775
g6
g7
(g11
S'\x18r\xcd\xf9\xe2\xf4\xce?'
p776
tp777
Rp778
sg17
I75
sg18
F0.2958009630466153
sg19
g778
sg20
F97.61431780538305
sg21
g7
(g24
S'\x00\x00\x00\x00'
p779
tp780
Rp781
sg30
g7
(g11
S'\xf9\xa9\x00o\x90\xf0\xc6?'
p782
tp783
Rp784
sg34
g781
sa(dp785
g6
g7
(g11
S'\x92\xd8D\xc2p\xc0\xd4?'
p786
tp787
Rp788
sg17
I76
sg18
F0.3134834954095825
sg19
g788
sg20
F103.44955348516221
sg21
g7
(g24
S'\x00\x00\x00\x00'
p789
tp790
Rp791
sg30
g7
(g11
S'\xecXH\xe4\xb35\xcb?'
p792
tp793
Rp794
sg34
g791
sa(dp795
g6
g7
(g11
S'\xca\xfa\x84\xc0sT\xd1?'
p796
tp797
Rp798
sg17
I77
sg18
F0.2777509206976597
sg19
g798
sg20
F91.6578038302277
sg21
g7
(g24
S'\x00\x00\x00\x00'
p799
tp800
Rp801
sg30
g7
(g11
S'\x08j\xd1]jg\xc7?'
p802
tp803
Rp804
sg34
g801
sa(dp805
g6
g7
(g11
S'\x01{V$\xea\x9e\xd1?'
p806
tp807
Rp808
sg17
I78
sg18
F0.2975842312880357
sg19
g808
sg20
F98.20279632505178
sg21
g7
(g24
S'\x00\x00\x00\x00'
p809
tp810
Rp811
sg30
g7
(g11
S'\xb8\xfb\x16\x95\xb0q\xc8?'
p812
tp813
Rp814
sg34
g811
sa(dp815
g6
g7
(g11
S'X\x8c\x11\xf1\xb6p\xcf?'
p816
tp817
Rp818
sg17
I79
sg18
F0.2813671717171718
sg19
g818
sg20
F92.85116666666669
sg21
g7
(g24
S'\x00\x00\x00\x00'
p819
tp820
Rp821
sg30
g7
(g11
S' \xc3xH/|\xc6?'
p822
tp823
Rp824
sg34
g821
sa(dp825
g6
g7
(g11
S't\xa1\xae\xd7q\x85\xd7?'
p826
tp827
Rp828
sg17
I80
sg18
F0.2912788537549407
sg19
g828
sg20
F96.12202173913045
sg21
g7
(g24
S'\x00\x00\x00\x00'
p829
tp830
Rp831
sg30
g7
(g11
S'c9E\x9a\xd6\x1b\xcc?'
p832
tp833
Rp834
sg34
g831
sa(dp835
g6
g7
(g11
S'\xdc\x8b\x89\xe3\x07:\xd1?'
p836
tp837
Rp838
sg17
I81
sg18
F0.28910324257063386
sg19
g838
sg20
F95.40407004830918
sg21
g7
(g24
S'\x00\x00\x00\x00'
p839
tp840
Rp841
sg30
g7
(g11
S'\x9f\x0e\\\x84\xcc\xd1\xc7?'
p842
tp843
Rp844
sg34
g841
sa(dp845
g6
g7
(g11
S']\xdd4g\xb2\x80\xd0?'
p846
tp847
Rp848
sg17
I82
sg18
F0.29975210960537063
sg19
g848
sg20
F98.91819616977232
sg21
g7
(g24
S'\x00\x00\x00\x00'
p849
tp850
Rp851
sg30
g7
(g11
S'\x86(j\x95\x8e\xca\xc7?'
p852
tp853
Rp854
sg34
g851
sa(dp855
g6
g7
(g11
S'2\t\x0b\xb83/\xd8?'
p856
tp857
Rp858
sg17
I83
sg18
F0.2649287073634899
sg19
g858
sg20
F87.42647342995167
sg21
g7
(g24
S'\x00\x00\x00\x00'
p859
tp860
Rp861
sg30
g7
(g11
S'6\xa9\xad+2m\xcb?'
p862
tp863
Rp864
sg34
g861
sa(dp865
g6
g7
(g11
S'|[\tTBT\xd8?'
p866
tp867
Rp868
sg17
I84
sg18
F0.2635122759687976
sg19
g868
sg20
F86.95905106970321
sg21
g7
(g24
S'\x00\x00\x00\x00'
p869
tp870
Rp871
sg30
g7
(g11
S'3y\x96\xf2mv\xcb?'
p872
tp873
Rp874
sg34
g871
sa(dp875
g6
g7
(g11
S'S\x98\xdb\xf8Z\xd4\xd4?'
p876
tp877
Rp878
sg17
I85
sg18
F0.2930175308990527
sg19
g878
sg20
F96.69578519668738
sg21
g7
(g24
S'\x00\x00\x00\x00'
p879
tp880
Rp881
sg30
g7
(g11
S'\x03\xafL\xb7oc\xca?'
p882
tp883
Rp884
sg34
g881
sa(dp885
g6
g7
(g11
S'|n\xd2\xf4\xa6\xa1\xd2?'
p886
tp887
Rp888
sg17
I86
sg18
F0.3183532875337224
sg19
g888
sg20
F105.05658488612839
sg21
g7
(g24
S'\x00\x00\x00\x00'
p889
tp890
Rp891
sg30
g7
(g11
S'\x89K\xf8\xf2\x08\x01\xca?'
p892
tp893
Rp894
sg34
g891
sa(dp895
g6
g7
(g11
S'\r\xca\x17\xf5U\x83\xd8?'
p896
tp897
Rp898
sg17
I87
sg18
F0.26666349310914517
sg19
g898
sg20
F87.9989527260179
sg21
g7
(g24
S'\x00\x00\x00\x00'
p899
tp900
Rp901
sg30
g7
(g11
S'\x80V\r\xcf;\xb8\xcb?'
p902
tp903
Rp904
sg34
g901
sa(dp905
g6
g7
(g11
S'6\xa1+\x91\x9cN\xd5?'
p906
tp907
Rp908
sg17
I88
sg18
F0.2609404871698351
sg19
g908
sg20
F86.11036076604557
sg21
g7
(g24
S'\x00\x00\x00\x00'
p909
tp910
Rp911
sg30
g7
(g11
S'<\x8c6\xdd\x92V\xc9?'
p912
tp913
Rp914
sg34
g911
sa(dp915
g6
g7
(g11
S'D\xab\xd3\x18\xb4\x18\xce?'
p916
tp917
Rp918
sg17
I89
sg18
F0.2959101585210282
sg19
g918
sg20
F97.6503523119393
sg21
g7
(g24
S'\x00\x00\x00\x00'
p919
tp920
Rp921
sg30
g7
(g11
S'\xe9_\x82\xce\\\xa8\xc6?'
p922
tp923
Rp924
sg34
g921
sa(dp925
g6
g7
(g11
S'Co\xef\xa8\x95\xea\xd5?'
p926
tp927
Rp928
sg17
I90
sg18
F0.2680144535416274
sg19
g928
sg20
F88.44476966873704
sg21
g7
(g24
S'\x00\x00\x00\x00'
p929
tp930
Rp931
sg30
g7
(g11
S'\xf8v\xc2\x80\xd2\x0b\xca?'
p932
tp933
Rp934
sg34
g931
sa(dp935
g6
g7
(g11
S'Si\xa9p\xeaK\xce?'
p936
tp937
Rp938
sg17
I91
sg18
F0.2864848469163688
sg19
g938
sg20
F94.5399994824017
sg21
g7
(g24
S'\x00\x00\x00\x00'
p939
tp940
Rp941
sg30
g7
(g11
S'\x90*\xf0\xd6{R\xc6?'
p942
tp943
Rp944
sg34
g941
sa(dp945
g6
g7
(g11
S'\xc86\xc5\\l\xb6\xcf?'
p946
tp947
Rp948
sg17
I92
sg18
F0.3116748509944163
sg19
g948
sg20
F102.85270082815737
sg21
g7
(g24
S'\x00\x00\x00\x00'
p949
tp950
Rp951
sg30
g7
(g11
S'X[\x97+v\xde\xc7?'
p952
tp953
Rp954
sg34
g951
sa(dp955
g6
g7
(g11
S'\x1e_B3H!\xd1?'
p956
tp957
Rp958
sg17
I93
sg18
F0.3037296536796537
sg19
g958
sg20
F100.23078571428572
sg21
g7
(g24
S'\x00\x00\x00\x00'
p959
tp960
Rp961
sg30
g7
(g11
S'o\x1bg"\x0fa\xc8?'
p962
tp963
Rp964
sg34
g961
sa(dp965
g6
g7
(g11
S'3\x91\xc6\x1e\x08g\xd6?'
p966
tp967
Rp968
sg17
I94
sg18
F0.2527436863458602
sg19
g968
sg20
F83.40541649413387
sg21
g7
(g24
S'\x00\x00\x00\x00'
p969
tp970
Rp971
sg30
g7
(g11
S'\x86\xc0\tQ\xfd\xb7\xc9?'
p972
tp973
Rp974
sg34
g971
sa(dp975
g6
g7
(g11
S'a\x91({Q\xca\xd5?'
p976
tp977
Rp978
sg17
I95
sg18
F0.2530470732166385
sg19
g978
sg20
F83.5055341614907
sg21
g7
(g24
S'\x00\x00\x00\x00'
p979
tp980
Rp981
sg30
g7
(g11
S'\x15qh\xe3\xd3R\xc9?'
p982
tp983
Rp984
sg34
g981
sa(dp985
g6
g7
(g11
S'fxk\xaec\xcf\xce?'
p986
tp987
Rp988
sg17
I96
sg18
F0.28196686429512524
sg19
g988
sg20
F93.04906521739133
sg21
g7
(g24
S'\x00\x00\x00\x00'
p989
tp990
Rp991
sg30
g7
(g11
S'P)\x97\xb9\xf5L\xc6?'
p992
tp993
Rp994
sg34
g991
sa(dp995
g6
g7
(g11
S'\x9a$\x8e{\xfe#\xd7?'
p996
tp997
Rp998
sg17
I97
sg18
F0.2662157809983896
sg19
g998
sg20
F87.85120772946857
sg21
g7
(g24
S'\x00\x00\x00\x00'
p999
tp1000
Rp1001
sg30
g7
(g11
S'4\xf66\x99\x1d\xc9\xca?'
p1002
tp1003
Rp1004
sg34
g1001
sa(dp1005
g6
g7
(g11
S'\xe9\x7f\xc9TU\xf2\xd7?'
p1006
tp1007
Rp1008
sg17
I98
sg18
F0.27933009912792517
sg19
g1008
sg20
F92.1789327122153
sg21
g7
(g24
S'\x00\x00\x00\x00'
p1009
tp1010
Rp1011
sg30
g7
(g11
S'\x9a)H\x1f\xeb\xe1\xcb?'
p1012
tp1013
Rp1014
sg34
g1011
sa(dp1015
g6
g7
(g11
S'xl4\xf2\xeb\x15\xd5?'
p1016
tp1017
Rp1018
sg17
I99
sg18
F0.26786923479097385
sg19
g1018
sg20
F88.39684748102137
sg21
g7
(g24
S'\x00\x00\x00\x00'
p1019
tp1020
Rp1021
sg30
g7
(g11
S'\xbf\xf8N\xf7u|\xc9?'
p1022
tp1023
Rp1024
sg34
g1021
sa(dp1025
g6
g7
(g11
S'QZ,);\xe6\xd6?'
p1026
tp1027
Rp1028
sg17
I100
sg18
F0.2601604628061151
sg19
g1028
sg20
F85.85295272601797
sg21
g7
(g24
S'\x00\x00\x00\x00'
p1029
tp1030
Rp1031
sg30
g7
(g11
S'U\xb8\x06\xd2\xcc]\xca?'
p1032
tp1033
Rp1034
sg34
g1031
sa(dp1035
g6
g7
(g11
S'\xbb\x8d\xd5c$\xce\xce?'
p1036
tp1037
Rp1038
sg17
I101
sg18
F0.28085900307422057
sg19
g1038
sg20
F92.68347101449278
sg21
g7
(g24
S'\x00\x00\x00\x00'
p1039
tp1040
Rp1041
sg30
g7
(g11
S'\xf6vq}q@\xc6?'
p1042
tp1043
Rp1044
sg34
g1041
sa(dp1045
g6
g7
(g11
S'Z\xbe`F\x9a\xa4\xd3?'
p1046
tp1047
Rp1048
sg17
I102
sg18
F0.2724178743961353
sg19
g1048
sg20
F89.89789855072465
sg21
g7
(g24
S'\x00\x00\x00\x00'
p1049
tp1050
Rp1051
sg30
g7
(g11
S'U\x97\xd0o\xee\xb7\xc8?'
p1052
tp1053
Rp1054
sg34
g1051
sa(dp1055
g6
g7
(g11
S'X\xd0\xc8R\x83\xee\xd1?'
p1056
tp1057
Rp1058
sg17
I103
sg18
F0.2760226237530586
sg19
g1058
sg20
F91.08746583850933
sg21
g7
(g24
S'\x00\x00\x00\x00'
p1059
tp1060
Rp1061
sg30
g7
(g11
S'\xf3)\xda\xbe>\xbb\xc7?'
p1062
tp1063
Rp1064
sg34
g1061
sa(dp1065
g6
g7
(g11
S'\xb3\xdb\xdb#\xc5`\xd7?'
p1066
tp1067
Rp1068
sg17
I104
sg18
F0.28426139186900057
sg19
g1068
sg20
F93.8062593167702
sg21
g7
(g24
S'\x00\x00\x00\x00'
p1069
tp1070
Rp1071
sg30
g7
(g11
S'\x10\x88\xd68\xbd\xb6\xcb?'
p1072
tp1073
Rp1074
sg34
g1071
sa(dp1075
g6
g7
(g11
S'\x9a$\xfd\x14x\xaa\xd4?'
p1076
tp1077
Rp1078
sg17
I105
sg18
F0.2676456678587114
sg19
g1078
sg20
F88.32307039337476
sg21
g7
(g24
S'\x00\x00\x00\x00'
p1079
tp1080
Rp1081
sg30
g7
(g11
S'\xdc.c@b2\xc9?'
p1082
tp1083
Rp1084
sg34
g1081
sa(dp1085
g6
g7
(g11
S'\xec\xb9\xf9?\xfc\xa8\xcf?'
p1086
tp1087
Rp1088
sg17
I106
sg18
F0.29535660225442834
sg19
g1088
sg20
F97.46767874396136
sg21
g7
(g24
S'\x00\x00\x00\x00'
p1089
tp1090
Rp1091
sg30
g7
(g11
S"\x97\xc4\xe1U\xbe'\xc7?"
p1092
tp1093
Rp1094
sg34
g1091
sa(dp1095
g6
g7
(g11
S'\x04r\x94\x92\xc3a\xd4?'
p1096
tp1097
Rp1098
sg17
I107
sg18
F0.25982434908087076
sg19
g1098
sg20
F85.74203519668735
sg21
g7
(g24
S'\x00\x00\x00\x00'
p1099
tp1100
Rp1101
sg30
g7
(g11
S'@Ac\xeb{\xac\xc8?'
p1102
tp1103
Rp1104
sg34
g1101
sa(dp1105
g6
g7
(g11
S'Ef+\xb5=4\xd6?'
p1106
tp1107
Rp1108
sg17
I108
sg18
F0.2570049485538615
sg19
g1108
sg20
F84.8116330227743
sg21
g7
(g24
S'\x00\x00\x00\x00'
p1109
tp1110
Rp1111
sg30
g7
(g11
S'\x19\x17\xf0d\xac\xc4\xc9?'
p1112
tp1113
Rp1114
sg34
g1111
sa(dp1115
g6
g7
(g11
S'3\x05\xfcA\xf1h\xd6?'
p1116
tp1117
Rp1118
sg17
I109
sg18
F0.2619300567789698
sg19
g1118
sg20
F86.43691873706003
sg21
g7
(g24
S'\x00\x00\x00\x00'
p1119
tp1120
Rp1121
sg30
g7
(g11
S'Zn\x9b\\\x9a\x1d\xca?'
p1122
tp1123
Rp1124
sg34
g1121
sa(dp1125
g6
g7
(g11
S'\t\xa2\xcb\xb6\xfa\xd9\xd6?'
p1126
tp1127
Rp1128
sg17
I110
sg18
F0.25682394598155456
sg19
g1128
sg20
F84.75190217391301
sg21
g7
(g24
S'\x00\x00\x00\x00'
p1129
tp1130
Rp1131
sg30
g7
(g11
S'\x7fmUG01\xca?'
p1132
tp1133
Rp1134
sg34
g1131
sa(dp1135
g6
g7
(g11
S'Qn3T\x1ah\xd5?'
p1136
tp1137
Rp1138
sg17
I111
sg18
F0.2956566419892506
sg19
g1138
sg20
F97.5666918564527
sg21
g7
(g24
S'\x00\x00\x00\x00'
p1139
tp1140
Rp1141
sg30
g7
(g11
S'\xb9\x04\xd5\xc6\xc2\xe2\xca?'
p1142
tp1143
Rp1144
sg34
g1141
sa(dp1145
g6
g7
(g11
S'\x97\xbd\xfb\xe3\xc9\xd0\xd7?'
p1146
tp1147
Rp1148
sg17
I112
sg18
F0.2753799407114625
sg19
g1148
sg20
F90.87538043478261
sg21
g7
(g24
S'\x00\x00\x00\x00'
p1149
tp1150
Rp1151
sg30
g7
(g11
S'\x84\x94\xe0\xb7h\xa0\xcb?'
p1152
tp1153
Rp1154
sg34
g1151
sa(dp1155
g6
g7
(g11
S'\xf2\\\x13+\xd7\xd3\xd5?'
p1156
tp1157
Rp1158
sg17
I113
sg18
F0.3034883796557711
sg19
g1158
sg20
F100.15116528640446
sg21
g7
(g24
S'\x00\x00\x00\x00'
p1159
tp1160
Rp1161
sg30
g7
(g11
S'\x1c\xa5\xf0 !\x80\xcb?'
p1162
tp1163
Rp1164
sg34
g1161
sa(dp1165
g6
g7
(g11
S'8\x84\xab\xe7gX\xd8?'
p1166
tp1167
Rp1168
sg17
I114
sg18
F0.26819772256728763
sg19
g1168
sg20
F88.50524844720492
sg21
g7
(g24
S'\x00\x00\x00\x00'
p1169
tp1170
Rp1171
sg30
g7
(g11
S'\x85N\xa9\x1f_\xac\xcb?'
p1172
tp1173
Rp1174
sg34
g1171
sa(dp1175
g6
g7
(g11
S'\xc4ZL\xba\x98\x01\xd0?'
p1176
tp1177
Rp1178
sg17
I115
sg18
F0.277515129556434
sg19
g1178
sg20
F91.57999275362322
sg21
g7
(g24
S'\x00\x00\x00\x00'
p1179
tp1180
Rp1181
sg30
g7
(g11
S'*\xbfv\xb2\xef\x82\xc6?'
p1182
tp1183
Rp1184
sg34
g1181
sa(dp1185
g6
g7
(g11
S'sD\x9ef\x98?\xd0?'
p1186
tp1187
Rp1188
sg17
I116
sg18
F0.30122815891837634
sg19
g1188
sg20
F99.4052924430642
sg21
g7
(g24
S'\x00\x00\x00\x00'
p1189
tp1190
Rp1191
sg30
g7
(g11
S'\xed:\x9c?G\xaf\xc7?'
p1192
tp1193
Rp1194
sg34
g1191
sa(dp1195
g6
g7
(g11
S'\xaa3\x81\xafy\xef\xd4?'
p1196
tp1197
Rp1198
sg17
I117
sg18
F0.2606754470167514
sg19
g1198
sg20
F86.02289751552796
sg21
g7
(g24
S'\x00\x00\x00\x00'
p1199
tp1200
Rp1201
sg30
g7
(g11
S'\x19=\xa3+A\x14\xc9?'
p1202
tp1203
Rp1204
sg34
g1201
sa(dp1205
g6
g7
(g11
S'\xfdt\x9d\x04 \x08\xd4?'
p1206
tp1207
Rp1208
sg17
I118
sg18
F0.30673911945542387
sg19
g1208
sg20
F101.22390942028987
sg21
g7
(g24
S'\x00\x00\x00\x00'
p1209
tp1210
Rp1211
sg30
g7
(g11
S'k\xce|\xc1(q\xca?'
p1212
tp1213
Rp1214
sg34
g1211
sa(dp1215
g6
g7
(g11
S';\xa3\xa0\xb0=\x96\xd6?'
p1216
tp1217
Rp1218
sg17
I119
sg18
F0.2999261434217957
sg19
g1218
sg20
F98.97562732919258
sg21
g7
(g24
S'\x00\x00\x00\x00'
p1219
tp1220
Rp1221
sg30
g7
(g11
S'\x9fxI\x13\xd2\xda\xcb?'
p1222
tp1223
Rp1224
sg34
g1221
sa(dp1225
g6
g7
(g11
S'\xed \x8a\x0e_\xe0\xcd?'
p1226
tp1227
Rp1228
sg17
I120
sg18
F0.29811436570675703
sg19
g1228
sg20
F98.37774068322982
sg21
g7
(g24
S'\x00\x00\x00\x00'
p1229
tp1230
Rp1231
sg30
g7
(g11
S'\xe0\xfb\n4\xa9\xad\xc6?'
p1232
tp1233
Rp1234
sg34
g1231
sa(dp1235
g6
g7
(g11
S'I8\x145\x0e\xc8\xcf?'
p1236
tp1237
Rp1238
sg17
I121
sg18
F0.28056062801932374
sg19
g1238
sg20
F92.58500724637683
sg21
g7
(g24
S'\x00\x00\x00\x00'
p1239
tp1240
Rp1241
sg30
g7
(g11
S' \xa3\xac\x1c}\x90\xc6?'
p1242
tp1243
Rp1244
sg34
g1241
sa(dp1245
g6
g7
(g11
S'\xdf\x81\xca\x01?\x1f\xcf?'
p1246
tp1247
Rp1248
sg17
I122
sg18
F0.29888871635610775
sg19
g1248
sg20
F98.63327639751556
sg21
g7
(g24
S'\x00\x00\x00\x00'
p1249
tp1250
Rp1251
sg30
g7
(g11
S'\xd6\xee>\x18i \xc7?'
p1252
tp1253
Rp1254
sg34
g1251
sa(dp1255
g6
g7
(g11
S'<\x8bB\xc7|\x17\xd0?'
p1256
tp1257
Rp1258
sg17
I123
sg18
F0.2908071075663468
sg19
g1258
sg20
F95.96634549689445
sg21
g7
(g24
S'\x00\x00\x00\x00'
p1259
tp1260
Rp1261
sg30
g7
(g11
S'\xf0\x8b\x94\xcb\xb6"\xc7?'
p1262
tp1263
Rp1264
sg34
g1261
sa(dp1265
g6
g7
(g11
S'$\xe5{*\x80\xe8\xd4?'
p1266
tp1267
Rp1268
sg17
I124
sg18
F0.2594032749858836
sg19
g1268
sg20
F85.6030807453416
sg21
g7
(g24
S'\x00\x00\x00\x00'
p1269
tp1270
Rp1271
sg30
g7
(g11
S'\xac\xf4\xbe\x92\xb5\x01\xc9?'
p1272
tp1273
Rp1274
sg34
g1271
sa(dp1275
g6
g7
(g11
S' 0\xecN\xecU\xd2?'
p1276
tp1277
Rp1278
sg17
I125
sg18
F0.3131735052387227
sg19
g1278
sg20
F103.3472567287785
sg21
g7
(g24
S'\x00\x00\x00\x00'
p1279
tp1280
Rp1281
sg30
g7
(g11
S'\x14\x04\xc7\xcb\xf8\x95\xc9?'
p1282
tp1283
Rp1284
sg34
g1281
sa(dp1285
g6
g7
(g11
S'<8\xd6\xe1JA\xd6?'
p1286
tp1287
Rp1288
sg17
I126
sg18
F0.27937821695212994
sg19
g1288
sg20
F92.19481159420289
sg21
g7
(g24
S'\x00\x00\x00\x00'
p1289
tp1290
Rp1291
sg30
g7
(g11
S'\xb8-e\t\xc0\xc1\xca?'
p1292
tp1293
Rp1294
sg34
g1291
sa(dp1295
g6
g7
(g11
S'\x86\x87Es,=\xd8?'
p1296
tp1297
Rp1298
sg17
I127
sg18
F0.2767438599242946
sg19
g1298
sg20
F91.32547377501723
sg21
g7
(g24
S'\x00\x00\x00\x00'
p1299
tp1300
Rp1301
sg30
g7
(g11
S'Tj#8\x90\xf7\xcb?'
p1302
tp1303
Rp1304
sg34
g1301
sa(dp1305
g6
g7
(g11
S'8\xb3\x80\xb4\xec\x1c\xd3?'
p1306
tp1307
Rp1308
sg17
I128
sg18
F0.30441795595708643
sg19
g1308
sg20
F100.45792546583853
sg21
g7
(g24
S'\x00\x00\x00\x00'
p1309
tp1310
Rp1311
sg30
g7
(g11
S'\x8c<\xdco\x01\xbb\xc9?'
p1312
tp1313
Rp1314
sg34
g1311
sa(dp1315
g6
g7
(g11
S'\x08R\xb9\x95\x1e.\xd6?'
p1316
tp1317
Rp1318
sg17
I129
sg18
F0.2615740212685864
sg19
g1318
sg20
F86.31942701863352
sg21
g7
(g24
S'\x00\x00\x00\x00'
p1319
tp1320
Rp1321
sg30
g7
(g11
S'\xb0^\xf4\xb2\x7f\xf2\xc9?'
p1322
tp1323
Rp1324
sg34
g1321
sa(dp1325
g6
g7
(g11
S'\x93\xc9\x1c\x0c\xb7/\xd1?'
p1326
tp1327
Rp1328
sg17
I130
sg18
F0.2882562117029509
sg19
g1328
sg20
F95.1245498619738
sg21
g7
(g24
S'\x00\x00\x00\x00'
p1329
tp1330
Rp1331
sg30
g7
(g11
S'c3n|\xab\xc1\xc7?'
p1332
tp1333
Rp1334
sg34
g1331
sa(dp1335
g6
g7
(g11
S'\x81a\xa6\xc9\xec\x14\xd2?'
p1336
tp1337
Rp1338
sg17
I131
sg18
F0.3022437054290315
sg19
g1338
sg20
F99.7404227915804
sg21
g7
(g24
S'\x00\x00\x00\x00'
p1339
tp1340
Rp1341
sg30
g7
(g11
S'\x81y\xce\xd8A\xf3\xc8?'
p1342
tp1343
Rp1344
sg34
g1341
sa(dp1345
g6
g7
(g11
S'\xcc\x1a\x95l\xa4\xed\xcf?'
p1346
tp1347
Rp1348
sg17
I132
sg18
F0.3010310339419036
sg19
g1348
sg20
F99.34024120082819
sg21
g7
(g24
S'\x00\x00\x00\x00'
p1349
tp1350
Rp1351
sg30
g7
(g11
S'\xefu\xd6\xeb\x9b|\xc7?'
p1352
tp1353
Rp1354
sg34
g1351
sa(dp1355
g6
g7
(g11
S'?8v\xf2\x94\xbc\xd6?'
p1356
tp1357
Rp1358
sg17
I133
sg18
F0.2524757795344752
sg19
g1358
sg20
F83.31700724637682
sg21
g7
(g24
S'\x00\x00\x00\x00'
p1359
tp1360
Rp1361
sg30
g7
(g11
S'\x04$\xff\xbe\x18\xee\xc9?'
p1362
tp1363
Rp1364
sg34
g1361
sa(dp1365
g6
g7
(g11
S'\xad\\\xeb\xb6gR\xd7?'
p1366
tp1367
Rp1368
sg17
I134
sg18
F0.2705838457034108
sg19
g1368
sg20
F89.29266908212557
sg21
g7
(g24
S'\x00\x00\x00\x00'
p1369
tp1370
Rp1371
sg30
g7
(g11
S'\x00s\xf7i\xc4\x17\xcb?'
p1372
tp1373
Rp1374
sg34
g1371
sa(dp1375
g6
g7
(g11
S'\xe3\x84\xe1I\x85p\xd6?'
p1376
tp1377
Rp1378
sg17
I135
sg18
F0.27522883022774336
sg19
g1378
sg20
F90.82551397515532
sg21
g7
(g24
S'\x00\x00\x00\x00'
p1379
tp1380
Rp1381
sg30
g7
(g11
S'\xc8q\x0b\xc8\xe9\xb3\xca?'
p1382
tp1383
Rp1384
sg34
g1381
sa(dp1385
g6
g7
(g11
S'\x08\xba\xc1\xb2\xf2&\xce?'
p1386
tp1387
Rp1388
sg17
I136
sg18
F0.290371196436414
sg19
g1388
sg20
F95.82249482401662
sg21
g7
(g24
S'\x00\x00\x00\x00'
p1389
tp1390
Rp1391
sg30
g7
(g11
S'\xd6\xc0\xa6G\x9cp\xc6?'
p1392
tp1393
Rp1394
sg34
g1391
sa(dp1395
g6
g7
(g11
S'\xba\xf4\x84\x92i\x86\xd1?'
p1396
tp1397
Rp1398
sg17
I137
sg18
F0.3036549098646924
sg19
g1398
sg20
F100.2061202553485
sg21
g7
(g24
S'\x00\x00\x00\x00'
p1399
tp1400
Rp1401
sg30
g7
(g11
S'\x978\x89\xb7\xa9\xa3\xc8?'
p1402
tp1403
Rp1404
sg34
g1401
sa(dp1405
g6
g7
(g11
S'\xfc\x02\x92\xfc\x06\xdf\xd0?'
p1406
tp1407
Rp1408
sg17
I138
sg18
F0.305796149382019
sg19
g1408
sg20
F100.91272929606626
sg21
g7
(g24
S'\x00\x00\x00\x00'
p1409
tp1410
Rp1411
sg30
g7
(g11
S'Vs\xda\xffuK\xc8?'
p1412
tp1413
Rp1414
sg34
g1411
sa(dp1415
g6
g7
(g11
S'\xc9\x97\xf8z\xd8\xc9\xd5?'
p1416
tp1417
Rp1418
sg17
I139
sg18
F0.2532490981240982
sg19
g1418
sg20
F83.5722023809524
sg21
g7
(g24
S'\x00\x00\x00\x00'
p1419
tp1420
Rp1421
sg30
g7
(g11
S'\xb8\x99\xad\x1f\xb8T\xc9?'
p1422
tp1423
Rp1424
sg34
g1421
sa(dp1425
g6
g7
(g11
S' \x8d\xdd\xe8_\xab\xd6?'
p1426
tp1427
Rp1428
sg17
I140
sg18
F0.2572686900056464
sg19
g1428
sg20
F84.8986677018633
sg21
g7
(g24
S'\x00\x00\x00\x00'
p1429
tp1430
Rp1431
sg30
g7
(g11
S'\xcc\x04\xe3\x00\xfa\x16\xca?'
p1432
tp1433
Rp1434
sg34
g1431
sa(dp1435
g6
g7
(g11
S'\t\xe3\xab\xedHU\xcf?'
p1436
tp1437
Rp1438
sg17
I141
sg18
F0.29674935796892327
sg19
g1438
sg20
F97.92728812974468
sg21
g7
(g24
S'\x00\x00\x00\x00'
p1439
tp1440
Rp1441
sg30
g7
(g11
S'\xcf\xf1|R\x0e\x1b\xc7?'
p1442
tp1443
Rp1444
sg34
g1441
sa(dp1445
g6
g7
(g11
S'Xiq\x15\x14\x0e\xd7?'
p1446
tp1447
Rp1448
sg17
I142
sg18
F0.28299313162682743
sg19
g1448
sg20
F93.38773343685305
sg21
g7
(g24
S'\x00\x00\x00\x00'
p1449
tp1450
Rp1451
sg30
g7
(g11
S'\nY\x844\xc2q\xcb?'
p1452
tp1453
Rp1454
sg34
g1451
sa(dp1455
g6
g7
(g11
S'\xd5\xe2\x92\x8b\x12x\xd2?'
p1456
tp1457
Rp1458
sg17
I143
sg18
F0.31463335215509136
sg19
g1458
sg20
F103.82900621118014
sg21
g7
(g24
S'\x00\x00\x00\x00'
p1459
tp1460
Rp1461
sg30
g7
(g11
S'\x8c\xb3V\xfb\xae\xbc\xc9?'
p1462
tp1463
Rp1464
sg34
g1461
sa(dp1465
g6
g7
(g11
S'\x0f\xfd\xe8u\xbe\xe5\xd0?'
p1466
tp1467
Rp1468
sg17
I144
sg18
F0.2879196467783426
sg19
g1468
sg20
F95.01348343685305
sg21
g7
(g24
S'\x00\x00\x00\x00'
p1469
tp1470
Rp1471
sg30
g7
(g11
S'\xc0\xfb\xbc\xfd\xad\x8c\xc7?'
p1472
tp1473
Rp1474
sg34
g1471
sa(dp1475
g6
g7
(g11
S'\xb4\xe8\x8f\x9c\x0f\x19\xd7?'
p1476
tp1477
Rp1478
sg17
I145
sg18
F0.27161763285024154
sg19
g1478
sg20
F89.6338188405797
sg21
g7
(g24
S'\x00\x00\x00\x00'
p1479
tp1480
Rp1481
sg30
g7
(g11
S'\x02\x94d[\xd4\xfc\xca?'
p1482
tp1483
Rp1484
sg34
g1481
sa(dp1485
g6
g7
(g11
S'\xaa\x9b\x9a1\x80\x89\xd6?'
p1486
tp1487
Rp1488
sg17
I146
sg18
F0.258262215320911
sg19
g1488
sg20
F85.22653105590062
sg21
g7
(g24
S'\x00\x00\x00\x00'
p1489
tp1490
Rp1491
sg30
g7
(g11
S'\x15)+\xf5>\x0b\xca?'
p1492
tp1493
Rp1494
sg34
g1491
sa(dp1495
g6
g7
(g11
S'\xf4\t\x13\xfc\x80\xb3\xd5?'
p1496
tp1497
Rp1498
sg17
I147
sg18
F0.25654448993035944
sg19
g1498
sg20
F84.65968167701861
sg21
g7
(g24
S'\x00\x00\x00\x00'
p1499
tp1500
Rp1501
sg30
g7
(g11
S'\xcf\xbd\xc0\xb5\xd1i\xc9?'
p1502
tp1503
Rp1504
sg34
g1501
sa(dp1505
g6
g7
(g11
S'\xa0\xb8\xdf\x1e\xcd\xdd\xcf?'
p1506
tp1507
Rp1508
sg17
I148
sg18
F0.29411162348118874
sg19
g1508
sg20
F97.05683574879228
sg21
g7
(g24
S'\x00\x00\x00\x00'
p1509
tp1510
Rp1511
sg30
g7
(g11
S'X.T\x14\xc0+\xc7?'
p1512
tp1513
Rp1514
sg34
g1511
sa(dp1515
g6
g7
(g11
S'\x88V{li\xd8\xd6?'
p1516
tp1517
Rp1518
sg17
I149
sg18
F0.28847245749419675
sg19
g1518
sg20
F95.19591097308493
sg21
g7
(g24
S'\x00\x00\x00\x00'
p1519
tp1520
Rp1521
sg30
g7
(g11
S'z\x8eqg\xd4\x89\xcb?'
p1522
tp1523
Rp1524
sg34
g1521
sa(dp1525
g6
g7
(g11
S'\xa1\xfe\x99\xf8\xc6+\xd0?'
p1526
tp1527
Rp1528
sg17
I150
sg18
F0.2880517054604011
sg19
g1528
sg20
F95.05706280193236
sg21
g7
(g24
S'\x00\x00\x00\x00'
p1529
tp1530
Rp1531
sg30
g7
(g11
S'Ff|\xed$\x12\xc7?'
p1532
tp1533
Rp1534
sg34
g1531
sa(dp1535
g6
g7
(g11
S'\xaf\x08\xe3\xccp\xfb\xd5?'
p1536
tp1537
Rp1538
sg17
I151
sg18
F0.25652014241796856
sg19
g1538
sg20
F84.65164699792962
sg21
g7
(g24
S'\x00\x00\x00\x00'
p1539
tp1540
Rp1541
sg30
g7
(g11
S'n\xe8\xff\xd6\x82\x99\xc9?'
p1542
tp1543
Rp1544
sg34
g1541
sa(dp1545
g6
g7
(g11
S'\xb7\xeeu\x05Y\xf9\xd4?'
p1546
tp1547
Rp1548
sg17
I152
sg18
F0.31208387308051333
sg19
g1548
sg20
F102.9876781165694
sg21
g7
(g24
S'\x00\x00\x00\x00'
p1549
tp1550
Rp1551
sg30
g7
(g11
S'G\x85cpZL\xcb?'
p1552
tp1553
Rp1554
sg34
g1551
sa(dp1555
g6
g7
(g11
S'\x84\xf8W\xe2\x14\xdf\xd5?'
p1556
tp1557
Rp1558
sg17
I153
sg18
F0.2683203612209047
sg19
g1558
sg20
F88.54571920289854
sg21
g7
(g24
S'\x00\x00\x00\x00'
p1559
tp1560
Rp1561
sg30
g7
(g11
S'+\xe3\xf1\xb2~\x07\xca?'
p1562
tp1563
Rp1564
sg34
g1561
sa(dp1565
g6
g7
(g11
S'fO\xc6\xde\x80%\xd8?'
p1566
tp1567
Rp1568
sg17
I154
sg18
F0.2727588681849552
sg19
g1568
sg20
F90.01042650103521
sg21
g7
(g24
S'\x00\x00\x00\x00'
p1569
tp1570
Rp1571
sg30
g7
(g11
S't\x9a\x9b\xa7A\xbc\xcb?'
p1572
tp1573
Rp1574
sg34
g1571
sa(dp1575
g6
g7
(g11
S'\x1ce+\xdd.)\xd4?'
p1576
tp1577
Rp1578
sg17
I155
sg18
F0.3107314752075624
sg19
g1578
sg20
F102.54138681849558
sg21
g7
(g24
S'\x00\x00\x00\x00'
p1579
tp1580
Rp1581
sg30
g7
(g11
S'ya\xc1\x16\xce\xb2\xca?'
p1582
tp1583
Rp1584
sg34
g1581
sa(dp1585
g6
g7
(g11
S'\x14\x0eF\xcf\xfa*\xd1?'
p1586
tp1587
Rp1588
sg17
I156
sg18
F0.27510954263128184
sg19
g1588
sg20
F90.78614906832301
sg21
g7
(g24
S'\x00\x00\x00\x00'
p1589
tp1590
Rp1591
sg30
g7
(g11
S'\x99\xe8\x95\x93\xea.\xc7?'
p1592
tp1593
Rp1594
sg34
g1591
sa(dp1595
g6
g7
(g11
S'(\x83<\xbe\t\x80\xd8?'
p1596
tp1597
Rp1598
sg17
I157
sg18
F0.27689244541690194
sg19
g1598
sg20
F91.37450698757765
sg21
g7
(g24
S'\x00\x00\x00\x00'
p1599
tp1600
Rp1601
sg30
g7
(g11
S'\xf25\x169\xc3%\xcc?'
p1602
tp1603
Rp1604
sg34
g1601
sa(dp1605
g6
g7
(g11
S'K\xc2\x82\xd3\x12\x1b\xd4?'
p1606
tp1607
Rp1608
sg17
I158
sg18
F0.28490449630884407
sg19
g1608
sg20
F94.01848378191855
sg21
g7
(g24
S'\x00\x00\x00\x00'
p1609
tp1610
Rp1611
sg30
g7
(g11
S'\xb4\x0b\xb2\x98L\x8f\xc9?'
p1612
tp1613
Rp1614
sg34
g1611
sa(dp1615
g6
g7
(g11
S'\xe4(c#\xab\xb7\xd6?'
p1616
tp1617
Rp1618
sg17
I159
sg18
F0.3072893228349752
sg19
g1618
sg20
F101.40547653554181
sg21
g7
(g24
S'\x00\x00\x00\x00'
p1619
tp1620
Rp1621
sg30
g7
(g11
S'\xe8\xd9\x96\xfb\x87A\xcc?'
p1622
tp1623
Rp1624
sg34
g1621
sa(dp1625
g6
g7
(g11
S'Q\x96_\xd7\x0b\x89\xd7?'
p1626
tp1627
Rp1628
sg17
I160
sg18
F0.2721036085492607
sg19
g1628
sg20
F89.79419082125602
sg21
g7
(g24
S'\x00\x00\x00\x00'
p1629
tp1630
Rp1631
sg30
g7
(g11
S'PX\x8ee\xcbL\xcb?'
p1632
tp1633
Rp1634
sg34
g1631
sa(dp1635
g6
g7
(g11
S'\xfd\xc0\xe0\x9e\xc3\xa9\xd1?'
p1636
tp1637
Rp1638
sg17
I161
sg18
F0.3105851308112178
sg19
g1638
sg20
F102.49309316770187
sg21
g7
(g24
S'\x00\x00\x00\x00'
p1639
tp1640
Rp1641
sg30
g7
(g11
S'\x96\xb6~b\xed\x06\xc9?'
p1642
tp1643
Rp1644
sg34
g1641
sa(dp1645
g6
g7
(g11
S'\xb2b\x8f*\xc5\x1c\xd2?'
p1646
tp1647
Rp1648
sg17
I162
sg18
F0.2887850424535208
sg19
g1648
sg20
F95.29906400966188
sg21
g7
(g24
S'\x00\x00\x00\x00'
p1649
tp1650
Rp1651
sg30
g7
(g11
S':\xd4\xdb\x9d{e\xc8?'
p1652
tp1653
Rp1654
sg34
g1651
sa(dp1655
g6
g7
(g11
S'[\xa4~u@\x06\xd6?'
p1656
tp1657
Rp1658
sg17
I163
sg18
F0.2726046249241903
sg19
g1658
sg20
F89.9595262249828
sg21
g7
(g24
S'\x00\x00\x00\x00'
p1659
tp1660
Rp1661
sg30
g7
(g11
S'\x80\xb4 kgP\xca?'
p1662
tp1663
Rp1664
sg34
g1661
sa(dp1665
g6
g7
(g11
S'\x9c\xbf\x0b\xda\xb0A\xd6?'
p1666
tp1667
Rp1668
sg17
I164
sg18
F0.2610795470230253
sg19
g1668
sg20
F86.15625051759835
sg21
g7
(g24
S'\x00\x00\x00\x00'
p1669
tp1670
Rp1671
sg30
g7
(g11
S'/\xe2\x0c:%\xfa\xc9?'
p1672
tp1673
Rp1674
sg34
g1671
sa(dp1675
g6
g7
(g11
S'\x1d\xa4/\x11t<\xd1?'
p1676
tp1677
Rp1678
sg17
I165
sg18
F0.30601927348014313
sg19
g1678
sg20
F100.98636024844723
sg21
g7
(g24
S'\x00\x00\x00\x00'
p1679
tp1680
Rp1681
sg30
g7
(g11
S'\x9a\xec\xb6\x9e.\x8c\xc8?'
p1682
tp1683
Rp1684
sg34
g1681
sa(dp1685
g6
g7
(g11
S')\x962\x8b\xb8L\xd6?'
p1686
tp1687
Rp1688
sg17
I166
sg18
F0.3048720214568042
sg19
g1688
sg20
F100.60776708074539
sg21
g7
(g24
S'\x00\x00\x00\x00'
p1689
tp1690
Rp1691
sg30
g7
(g11
S'4\xf2fR\xd4\xdf\xcb?'
p1692
tp1693
Rp1694
sg34
g1691
sa(dp1695
g6
g7
(g11
S'sV|\x05vF\xd8?'
p1696
tp1697
Rp1698
sg17
I167
sg18
F0.2621361806470501
sg19
g1698
sg20
F86.50493961352653
sg21
g7
(g24
S'\x00\x00\x00\x00'
p1699
tp1700
Rp1701
sg30
g7
(g11
S"\x16C'<3^\xcb?"
p1702
tp1703
Rp1704
sg34
g1701
sa(dp1705
g6
g7
(g11
S'\xa8\xe3/9by\xd7?'
p1706
tp1707
Rp1708
sg17
I168
sg18
F0.26471467469728327
sg19
g1708
sg20
F87.35584265010348
sg21
g7
(g24
S'\x00\x00\x00\x00'
p1709
tp1710
Rp1711
sg30
g7
(g11
S'\x8d\xb1\x8e\\\xa5\xf1\xca?'
p1712
tp1713
Rp1714
sg34
g1711
sa(dp1715
g6
g7
(g11
S'=\x95B\xaa\xd9M\xd0?'
p1716
tp1717
Rp1718
sg17
I169
sg18
F0.2843444190873538
sg19
g1718
sg20
F93.83365829882676
sg21
g7
(g24
S'\x00\x00\x00\x00'
p1719
tp1720
Rp1721
sg30
g7
(g11
S'\xd0\x03\xa3\xbb]\x00\xc7?'
p1722
tp1723
Rp1724
sg34
g1721
sa(dp1725
g6
g7
(g11
S'tn\xd6\xbb\x9d\t\xd7?'
p1726
tp1727
Rp1728
sg17
I170
sg18
F0.25806211650668176
sg19
g1728
sg20
F85.16049844720497
sg21
g7
(g24
S'\x00\x00\x00\x00'
p1729
tp1730
Rp1731
sg30
g7
(g11
S'\xc67\xaewx^\xca?'
p1732
tp1733
Rp1734
sg34
g1731
sa(dp1735
g6
g7
(g11
S'H\xf0 \x9cdo\xd0?'
p1736
tp1737
Rp1738
sg17
I171
sg18
F0.28961867588932816
sg19
g1738
sg20
F95.5741630434783
sg21
g7
(g24
S'\x00\x00\x00\x00'
p1739
tp1740
Rp1741
sg30
g7
(g11
S'w1\xf6@VP\xc7?'
p1742
tp1743
Rp1744
sg34
g1741
sa(dp1745
g6
g7
(g11
S'\x11\x8a\tm\x00H\xd1?'
p1746
tp1747
Rp1748
sg17
I172
sg18
F0.2776585497835498
sg19
g1748
sg20
F91.62732142857143
sg21
g7
(g24
S'\x00\x00\x00\x00'
p1749
tp1750
Rp1751
sg30
g7
(g11
S'>\x19\xd21\x1b^\xc7?'
p1752
tp1753
Rp1754
sg34
g1751
sa(dp1755
g6
g7
(g11
S'\xba\x8cp\xc6\xe7\xda\xd4?'
p1756
tp1757
Rp1758
sg17
I173
sg18
F0.3126139709726667
sg19
g1758
sg20
F103.16261042098
sg21
g7
(g24
S'\x00\x00\x00\x00'
p1759
tp1760
Rp1761
sg30
g7
(g11
S'S\xa5\xe43\xd9=\xcb?'
p1762
tp1763
Rp1764
sg34
g1761
sa(dp1765
g6
g7
(g11
S'\xa8\x8d\xb5:\xd1(\xd6?'
p1766
tp1767
Rp1768
sg17
I174
sg18
F0.2536400600204949
sg19
g1768
sg20
F83.7012198067633
sg21
g7
(g24
S'\x00\x00\x00\x00'
p1769
tp1770
Rp1771
sg30
g7
(g11
S'x\x17\xee\xd4M\x98\xc9?'
p1772
tp1773
Rp1774
sg34
g1771
sa(dp1775
g6
g7
(g11
S'\xab@DO\xb80\xd0?'
p1776
tp1777
Rp1778
sg17
I175
sg18
F0.27931217610891534
sg19
g1778
sg20
F92.17301811594207
sg21
g7
(g24
S'\x00\x00\x00\x00'
p1779
tp1780
Rp1781
sg30
g7
(g11
S'\xb6\x07\xce\xfd\xfa\xb5\xc6?'
p1782
tp1783
Rp1784
sg34
g1781
sa(dp1785
g6
g7
(g11
S'Vc\x8d+\xb5I\xd6?'
p1786
tp1787
Rp1788
sg17
I176
sg18
F0.2575900464270029
sg19
g1788
sg20
F85.00471532091096
sg21
g7
(g24
S'\x00\x00\x00\x00'
p1789
tp1790
Rp1791
sg30
g7
(g11
S'!\x91\x90\x16`\xd9\xc9?'
p1792
tp1793
Rp1794
sg34
g1791
sa(dp1795
g6
g7
(g11
S'Q[\x90\xc41\x0b\xd8?'
p1796
tp1797
Rp1798
sg17
I177
sg18
F0.2822682283497501
sg19
g1798
sg20
F93.14851535541754
sg21
g7
(g24
S'\x00\x00\x00\x00'
p1799
tp1800
Rp1801
sg30
g7
(g11
S'\xe2HI\xaf\x95\x12\xcc?'
p1802
tp1803
Rp1804
sg34
g1801
sa(dp1805
g6
g7
(g11
S'Ju\x98\x98\xe4\x9f\xd5?'
p1806
tp1807
Rp1808
sg17
I178
sg18
F0.25344881266076913
sg19
g1808
sg20
F83.63810817805381
sg21
g7
(g24
S'\x00\x00\x00\x00'
p1809
tp1810
Rp1811
sg30
g7
(g11
S'\x18e\xa9\xa4\xee:\xc9?'
p1812
tp1813
Rp1814
sg34
g1811
sa(dp1815
g6
g7
(g11
S't`"\xfa\\:\xd4?'
p1816
tp1817
Rp1818
sg17
I179
sg18
F0.3101636520484347
sg19
g1818
sg20
F102.35400517598346
sg21
g7
(g24
S'\x00\x00\x00\x00'
p1819
tp1820
Rp1821
sg30
g7
(g11
S'*_jj\x0e\xb8\xca?'
p1822
tp1823
Rp1824
sg34
g1821
sa(dp1825
g6
g7
(g11
S'O\xb8_\xa9W0\xd0?'
p1826
tp1827
Rp1828
sg17
I180
sg18
F0.31240754552869204
sg19
g1828
sg20
F103.09449002446837
sg21
g7
(g24
S'\x00\x00\x00\x00'
p1829
tp1830
Rp1831
sg30
g7
(g11
S'\x81pm\xeb7\x1f\xc8?'
p1832
tp1833
Rp1834
sg34
g1831
sa(dp1835
g6
g7
(g11
S'L<\x7f`\xb4\x16\xd7?'
p1836
tp1837
Rp1838
sg17
I181
sg18
F0.28401363636363647
sg19
g1838
sg20
F93.72450000000003
sg21
g7
(g24
S'\x00\x00\x00\x00'
p1839
tp1840
Rp1841
sg30
g7
(g11
S'\xbfHL\xf0\xa7\x82\xcb?'
p1842
tp1843
Rp1844
sg34
g1841
sa(dp1845
g6
g7
(g11
S'a\xdf*\\\xaf6\xd8?'
p1846
tp1847
Rp1848
sg17
I182
sg18
F0.27123515276993543
sg19
g1848
sg20
F89.5076004140787
sg21
g7
(g24
S'\x00\x00\x00\x00'
p1849
tp1850
Rp1851
sg30
g7
(g11
S'\xb8E9]\x11\xb7\xcb?'
p1852
tp1853
Rp1854
sg34
g1851
sa(dp1855
g6
g7
(g11
S'\xf2bw\xb2\xf9^\xd5?'
p1856
tp1857
Rp1858
sg17
I183
sg18
F0.3113144958905829
sg19
g1858
sg20
F102.73378364389237
sg21
g7
(g24
S'\x00\x00\x00\x00'
p1859
tp1860
Rp1861
sg30
g7
(g11
S'\x89\xbe\x14\x8e\xb3\x87\xcb?'
p1862
tp1863
Rp1864
sg34
g1861
sa(dp1865
g6
g7
(g11
S'ER7\x16\x84,\xd5?'
p1866
tp1867
Rp1868
sg17
I184
sg18
F0.25502533094924407
sg19
g1868
sg20
F84.15835921325053
sg21
g7
(g24
S'\x00\x00\x00\x00'
p1869
tp1870
Rp1871
sg30
g7
(g11
S'{\xe6\xd2\xe6;\xff\xc8?'
p1872
tp1873
Rp1874
sg34
g1871
sa(dp1875
g6
g7
(g11
S'\xc6|h\xebe\x0f\xd5?'
p1876
tp1877
Rp1878
sg17
I185
sg18
F0.2601279173724825
sg19
g1878
sg20
F85.84221273291922
sg21
g7
(g24
S'\x00\x00\x00\x00'
p1879
tp1880
Rp1881
sg30
g7
(g11
S'\xac[\x96R\x8e#\xc9?'
p1882
tp1883
Rp1884
sg34
g1881
sa(dp1885
g6
g7
(g11
S'\xed\x9d\x93E\x9e \xd8?'
p1886
tp1887
Rp1888
sg17
I186
sg18
F0.2655310004810003
sg19
g1888
sg20
F87.6252301587301
sg21
g7
(g24
S'\x00\x00\x00\x00'
p1889
tp1890
Rp1891
sg30
g7
(g11
S'\x13c\xe8V\rj\xcb?'
p1892
tp1893
Rp1894
sg34
g1891
sa(dp1895
g6
g7
(g11
S'\xf6\xc3\xc1\xd3\x0b\xd7\xd2?'
p1896
tp1897
Rp1898
sg17
I187
sg18
F0.3092213360311186
sg19
g1898
sg20
F102.04304089026915
sg21
g7
(g24
S'\x00\x00\x00\x00'
p1899
tp1900
Rp1901
sg30
g7
(g11
S'&\x9e\x15\xbe\xe2\xc0\xc9?'
p1902
tp1903
Rp1904
sg34
g1901
sa(dp1905
g6
g7
(g11
S'?\xceE\xea\xf5\xc7\xd7?'
p1906
tp1907
Rp1908
sg17
I188
sg18
F0.2620649298366689
sg19
g1908
sg20
F86.48142684610073
sg21
g7
(g24
S'\x00\x00\x00\x00'
p1909
tp1910
Rp1911
sg30
g7
(g11
S'\x82}\\\x99\x16\t\xcb?'
p1912
tp1913
Rp1914
sg34
g1911
sa(dp1915
g6
g7
(g11
S'e1\xa7<M\xc8\xd1?'
p1916
tp1917
Rp1918
sg17
I189
sg18
F0.31040634816069607
sg19
g1918
sg20
F102.43409489302971
sg21
g7
(g24
S'\x00\x00\x00\x00'
p1919
tp1920
Rp1921
sg30
g7
(g11
S'\xe1\xd2g7U\x19\xc9?'
p1922
tp1923
Rp1924
sg34
g1921
sa(dp1925
g6
g7
(g11
S'\xdevf\xdb\x97C\xd3?'
p1926
tp1927
Rp1928
sg17
I190
sg18
F0.3148926396469876
sg19
g1928
sg20
F103.9145710835059
sg21
g7
(g24
S'\x00\x00\x00\x00'
p1929
tp1930
Rp1931
sg30
g7
(g11
S'\xb7\xcc\xc552G\xca?'
p1932
tp1933
Rp1934
sg34
g1931
sa(dp1935
g6
g7
(g11
S'y\xf7\x87\x88\xefp\xd2?'
p1936
tp1937
Rp1938
sg17
I191
sg18
F0.30936862308384044
sg19
g1938
sg20
F102.09164561766734
sg21
g7
(g24
S'\x00\x00\x00\x00'
p1939
tp1940
Rp1941
sg30
g7
(g11
S'DDr\xb9k~\xc9?'
p1942
tp1943
Rp1944
sg34
g1941
sa(dp1945
g6
g7
(g11
S'Z\x88\xac_O\xbe\xd2?'
p1946
tp1947
Rp1948
sg17
I192
sg18
F0.31513657590396726
sg19
g1948
sg20
F103.9950700483092
sg21
g7
(g24
S'\x00\x00\x00\x00'
p1949
tp1950
Rp1951
sg30
g7
(g11
S'i\x02\xffP\x01\xf1\xc9?'
p1952
tp1953
Rp1954
sg34
g1951
sa(dp1955
g6
g7
(g11
S'C\x10\xfb\xd5d\xdd\xd0?'
p1956
tp1957
Rp1958
sg17
I193
sg18
F0.3054442021143111
sg19
g1958
sg20
F100.79658669772266
sg21
g7
(g24
S'\x00\x00\x00\x00'
p1959
tp1960
Rp1961
sg30
g7
(g11
S'G\xf3\xca\x1d\x87F\xc8?'
p1962
tp1963
Rp1964
sg34
g1961
sa(dp1965
g6
g7
(g11
S']\xe2\xa7\xa4U!\xd5?'
p1966
tp1967
Rp1968
sg17
I194
sg18
F0.29956292584227373
sg19
g1968
sg20
F98.85576552795034
sg21
g7
(g24
S'\x00\x00\x00\x00'
p1969
tp1970
Rp1971
sg30
g7
(g11
S'<I^\xbf?\xde\xca?'
p1972
tp1973
Rp1974
sg34
g1971
sa(dp1975
g6
g7
(g11
S'o\xf0\x11\xc7*u\xd2?'
p1976
tp1977
Rp1978
sg17
I195
sg18
F0.3110978470000209
sg19
g1978
sg20
F102.6622895100069
sg21
g7
(g24
S'\x00\x00\x00\x00'
p1979
tp1980
Rp1981
sg30
g7
(g11
S'\xa4d\xd5%!\x94\xc9?'
p1982
tp1983
Rp1984
sg34
g1981
sa(dp1985
g6
g7
(g11
S'\nc\xac\x1et\x00\xd6?'
p1986
tp1987
Rp1988
sg17
I196
sg18
F0.30450018455779326
sg19
g1988
sg20
F100.48506090407177
sg21
g7
(g24
S'\x00\x00\x00\x00'
p1989
tp1990
Rp1991
sg30
g7
(g11
S'>!\xd5N\xec\xa8\xcb?'
p1992
tp1993
Rp1994
sg34
g1991
sa(dp1995
g6
g7
(g11
S'\xaa\x0e\xc6\r\xf7\xe9\xce?'
p1996
tp1997
Rp1998
sg17
I197
sg18
F0.29511212382625435
sg19
g1998
sg20
F97.38700086266394
sg21
g7
(g24
S'\x00\x00\x00\x00'
p1999
tp2000
Rp2001
sg30
g7
(g11
S'\xc0\xcaVSf\xe5\xc6?'
p2002
tp2003
Rp2004
sg34
g2001
sa(dp2005
g6
g7
(g11
S'3[\xb7pT!\xd0?'
p2006
tp2007
Rp2008
sg17
I198
sg18
F0.3008691558441559
sg19
g2008
sg20
F99.28682142857144
sg21
g7
(g24
S'\x00\x00\x00\x00'
p2009
tp2010
Rp2011
sg30
g7
(g11
S'84\x99\x18.\x97\xc7?'
p2012
tp2013
Rp2014
sg34
g2011
sa(dp2015
g6
g7
(g11
S'\xf7z4t&v\xd7?'
p2016
tp2017
Rp2018
sg17
I199
sg18
F0.26413988173662084
sg19
g2018
sg20
F87.16616097308489
sg21
g7
(g24
S'\x00\x00\x00\x00'
p2019
tp2020
Rp2021
sg30
g7
(g11
S'p\x1e\x13G6\xe9\xca?'
p2022
tp2023
Rp2024
sg34
g2021
sa(dp2025
g6
g7
(g11
S'\x0f\xe0\x1bb"A\xd4?'
p2026
tp2027
Rp2028
sg17
I200
sg18
F0.3128557050839661
sg19
g2028
sg20
F103.24238267770882
sg21
g7
(g24
S'\x00\x00\x00\x00'
p2029
tp2030
Rp2031
sg30
g7
(g11
S'>\x90\xb0\x8b\xf9\xd9\xca?'
p2032
tp2033
Rp2034
sg34
g2031
sa(dp2035
g6
g7
(g11
S'\xd7X\x98.\xaa\xfc\xcf?'
p2036
tp2037
Rp2038
sg17
I201
sg18
F0.28439265637743893
sg19
g2038
sg20
F93.84957660455484
sg21
g7
(g24
S'\x00\x00\x00\x00'
p2039
tp2040
Rp2041
sg30
g7
(g11
S'\xd1\xa1\x97\x90\xe1\xcb\xc6?'
p2042
tp2043
Rp2044
sg34
g2041
sa(dp2045
g6
g7
(g11
S'\xdf\xddzO\xfaK\xd3?'
p2046
tp2047
Rp2048
sg17
I202
sg18
F0.3137715462074158
sg19
g2048
sg20
F103.54461024844721
sg21
g7
(g24
S'\x00\x00\x00\x00'
p2049
tp2050
Rp2051
sg30
g7
(g11
S'e\xf6\xe1_\x8a@\xca?'
p2052
tp2053
Rp2054
sg34
g2051
sa(dp2055
g6
g7
(g11
S'!1J1\xa4\x1d\xd8?'
p2056
tp2057
Rp2058
sg17
I203
sg18
F0.2635792971119057
sg19
g2058
sg20
F86.98116804692889
sg21
g7
(g24
S'\x00\x00\x00\x00'
p2059
tp2060
Rp2061
sg30
g7
(g11
S'\x8ac\xb1\xed\xbfR\xcb?'
p2062
tp2063
Rp2064
sg34
g2061
sa(dp2065
g6
g7
(g11
S'\xf1?\x8b&\x90<\xd3?'
p2066
tp2067
Rp2068
sg17
I204
sg18
F0.3074971030177553
sg19
g2068
sg20
F101.47404399585925
sg21
g7
(g24
S'\x00\x00\x00\x00'
p2069
tp2070
Rp2071
sg30
g7
(g11
S'\x1a\xbe\x8a\xfc\xba\xf1\xc9?'
p2072
tp2073
Rp2074
sg34
g2071
sa(dp2075
g6
g7
(g11
S'\x8a\xf0\xb5\xdf\x04\x0f\xd5?'
p2076
tp2077
Rp2078
sg17
I205
sg18
F0.27354522319467967
sg19
g2078
sg20
F90.2699236542443
sg21
g7
(g24
S'\x00\x00\x00\x00'
p2079
tp2080
Rp2081
sg30
g7
(g11
S'M{\xbd!\xdb\xb5\xc9?'
p2082
tp2083
Rp2084
sg34
g2081
sa(dp2085
g6
g7
(g11
S'&\x19\x91U\xd0\xc8\xd4?'
p2086
tp2087
Rp2088
sg17
I206
sg18
F0.2595738283455674
sg19
g2088
sg20
F85.65936335403725
sg21
g7
(g24
S'\x00\x00\x00\x00'
p2089
tp2090
Rp2091
sg30
g7
(g11
S'*rQ\x96r\xee\xc8?'
p2092
tp2093
Rp2094
sg34
g2091
sa(dp2095
g6
g7
(g11
S'1\x88\xa71C\x9f\xd7?'
p2096
tp2097
Rp2098
sg17
I207
sg18
F0.2773784506556245
sg19
g2098
sg20
F91.53488871635608
sg21
g7
(g24
S'\x00\x00\x00\x00'
p2099
tp2100
Rp2101
sg30
g7
(g11
S'k\x14"~8\x95\xcb?'
p2102
tp2103
Rp2104
sg34
g2101
sa(dp2105
g6
g7
(g11
S'\x84\xdf\xb7\xa3)9\xd1?'
p2106
tp2107
Rp2108
sg17
I208
sg18
F0.28311363793211625
sg19
g2108
sg20
F93.42750051759836
sg21
g7
(g24
S'\x00\x00\x00\x00'
p2109
tp2110
Rp2111
sg30
g7
(g11
S'\xee\xa2\xce3\xcc\x8f\xc7?'
p2112
tp2113
Rp2114
sg34
g2111
sa(dp2115
g6
g7
(g11
S'\x08k\x17Z\x02_\xd6?'
p2116
tp2117
Rp2118
sg17
I209
sg18
F0.2546117596775205
sg19
g2118
sg20
F84.02188069358176
sg21
g7
(g24
S'\x00\x00\x00\x00'
p2119
tp2120
Rp2121
sg30
g7
(g11
S'\x8e\xef9\xa6\x0b\xc7\xc9?'
p2122
tp2123
Rp2124
sg34
g2121
sa(dp2125
g6
g7
(g11
S'\x11\xf53\xc6G`\xd4?'
p2126
tp2127
Rp2128
sg17
I210
sg18
F0.25617197440240913
sg19
g2128
sg20
F84.53675155279501
sg21
g7
(g24
S'\x00\x00\x00\x00'
p2129
tp2130
Rp2131
sg30
g7
(g11
S'\xdbD\xd6\xf0\x99\x83\xc8?'
p2132
tp2133
Rp2134
sg34
g2131
sa(dp2135
g6
g7
(g11
S'\xfc~\xd2!\x0e\xc1\xd0?'
p2136
tp2137
Rp2138
sg17
I211
sg18
F0.28399880324989035
sg19
g2138
sg20
F93.71960507246382
sg21
g7
(g24
S'\x00\x00\x00\x00'
p2139
tp2140
Rp2141
sg30
g7
(g11
S'*\x9e9\xf7dI\xc7?'
p2142
tp2143
Rp2144
sg34
g2141
sa(dp2145
g6
g7
(g11
S'_\xd9\xd2Q\xe5\x7f\xce?'
p2146
tp2147
Rp2148
sg17
I212
sg18
F0.29715149423845083
sg19
g2148
sg20
F98.05999309868878
sg21
g7
(g24
S'\x00\x00\x00\x00'
p2149
tp2150
Rp2151
sg30
g7
(g11
S'\xe2\xa5\xe4\x92Q\xd8\xc6?'
p2152
tp2153
Rp2154
sg34
g2151
sa(dp2155
g6
g7
(g11
S'\xbf`{\x8bo\x9d\xd1?'
p2156
tp2157
Rp2158
sg17
I213
sg18
F0.27401493820189476
sg19
g2158
sg20
F90.42492960662527
sg21
g7
(g24
S'\x00\x00\x00\x00'
p2159
tp2160
Rp2161
sg30
g7
(g11
S'\xdc"\x05\xaaCo\xc7?'
p2162
tp2163
Rp2164
sg34
g2161
sa(dp2165
g6
g7
(g11
S'\xe4\x89\xa2\x13\xfc@\xd7?'
p2166
tp2167
Rp2168
sg17
I214
sg18
F0.2785063272476316
sg19
g2168
sg20
F91.90708799171841
sg21
g7
(g24
S'\x00\x00\x00\x00'
p2169
tp2170
Rp2171
sg30
g7
(g11
S'\xd5\x04\xa2/\xb0b\xcb?'
p2172
tp2173
Rp2174
sg34
g2171
sa(dp2175
g6
g7
(g11
S'q>\xff\xcc\xe6\x8f\xd1?'
p2176
tp2177
Rp2178
sg17
I215
sg18
F0.2734254579961103
sg19
g2178
sg20
F90.23040113871639
sg21
g7
(g24
S'\x00\x00\x00\x00'
p2179
tp2180
Rp2181
sg30
g7
(g11
S'\x8fGT\x87\xcd_\xc7?'
p2182
tp2183
Rp2184
sg34
g2181
sa(dp2185
g6
g7
(g11
S'r9\xf8]\xee\xfa\xd2?'
p2186
tp2187
Rp2188
sg17
I216
sg18
F0.3032781369596589
sg19
g2188
sg20
F100.08178519668743
sg21
g7
(g24
S'\x00\x00\x00\x00'
p2189
tp2190
Rp2191
sg30
g7
(g11
S'|a\x9e\xb6\xe4\x97\xc9?'
p2192
tp2193
Rp2194
sg34
g2191
sa(dp2195
g6
g7
(g11
S'\x91\x7f\xf8\x9b\xfa\x1d\xd7?'
p2196
tp2197
Rp2198
sg17
I217
sg18
F0.27402505332831434
sg19
g2198
sg20
F90.42826759834372
sg21
g7
(g24
S'\x00\x00\x00\x00'
p2199
tp2200
Rp2201
sg30
g7
(g11
S'\xa2\x11\tSg\x1a\xcb?'
p2202
tp2203
Rp2204
sg34
g2201
sa(dp2205
g6
g7
(g11
S'xOTVZz\xd4?'
p2206
tp2207
Rp2208
sg17
I218
sg18
F0.28718276868059495
sg19
g2208
sg20
F94.77031366459633
sg21
g7
(g24
S'\x00\x00\x00\x00'
p2209
tp2210
Rp2211
sg30
g7
(g11
S'\x02iv\x1d\xb4\xe7\xc9?'
p2212
tp2213
Rp2214
sg34
g2211
sa(dp2215
g6
g7
(g11
S'\xad\xbf\xbcy\xad\xc0\xd1?'
p2216
tp2217
Rp2218
sg17
I219
sg18
F0.2993288317962231
sg19
g2218
sg20
F98.77851449275363
sg21
g7
(g24
S'\x00\x00\x00\x00'
p2219
tp2220
Rp2221
sg30
g7
(g11
S'\xbe\xec\xb5\x0fA\x9b\xc8?'
p2222
tp2223
Rp2224
sg34
g2221
sa(dp2225
g6
g7
(g11
S"\xdd\x9c\xa2\x04'K\xd7?"
p2226
tp2227
Rp2228
sg17
I220
sg18
F0.27566462450592893
sg19
g2228
sg20
F90.96932608695654
sg21
g7
(g24
S'\x00\x00\x00\x00'
p2229
tp2230
Rp2231
sg30
g7
(g11
S'\xec\xde\xe8\x80mJ\xcb?'
p2232
tp2233
Rp2234
sg34
g2231
sa(dp2235
g6
g7
(g11
S'>\xb8WK\xf8\x99\xd3?'
p2236
tp2237
Rp2238
sg17
I221
sg18
F0.30610128327791386
sg19
g2238
sg20
F101.01342348171157
sg21
g7
(g24
S'\x00\x00\x00\x00'
p2239
tp2240
Rp2241
sg30
g7
(g11
S'H\x04\xb8k\xc1 \xca?'
p2242
tp2243
Rp2244
sg34
g2241
sa(dp2245
g6
g7
(g11
S'\xbf\xf2\xee1\x0f-\xd3?'
p2246
tp2247
Rp2248
sg17
I222
sg18
F0.3095893024447373
sg19
g2248
sg20
F102.16446980676332
sg21
g7
(g24
S'\x00\x00\x00\x00'
p2249
tp2250
Rp2251
sg30
g7
(g11
S'\xf1#\xd2:?\xfe\xc9?'
p2252
tp2253
Rp2254
sg34
g2251
sa(dp2255
g6
g7
(g11
S'\xaf{c!\xb2[\xd8?'
p2256
tp2257
Rp2258
sg17
I223
sg18
F0.2762591128678086
sg19
g2258
sg20
F91.16550724637683
sg21
g7
(g24
S'\x00\x00\x00\x00'
p2259
tp2260
Rp2261
sg30
g7
(g11
S'F\x87l\xe3\x9d\x06\xcc?'
p2262
tp2263
Rp2264
sg34
g2261
sa(dp2265
g6
g7
(g11
S's\x95\x9f\x05\xa3\x9d\xd2?'
p2266
tp2267
Rp2268
sg17
I224
sg18
F0.30072627203714164
sg19
g2268
sg20
F99.23966977225673
sg21
g7
(g24
S'\x00\x00\x00\x00'
p2269
tp2270
Rp2271
sg30
g7
(g11
S'p&\xa8\xf3\xd2=\xc9?'
p2272
tp2273
Rp2274
sg34
g2271
sa(dp2275
g6
g7
(g11
S'\xc9\xdf\xc1\xa52B\xd7?'
p2276
tp2277
Rp2278
sg17
I225
sg18
F0.2739586235021019
sg19
g2278
sg20
F90.40634575569362
sg21
g7
(g24
S'\x00\x00\x00\x00'
p2279
tp2280
Rp2281
sg30
g7
(g11
S'\xc6B\x92\xee\xd21\xcb?'
p2282
tp2283
Rp2284
sg34
g2281
sa(dp2285
g6
g7
(g11
S'\xe6\xb5\x16\xb0\x05J\xd4?'
p2286
tp2287
Rp2288
sg17
I226
sg18
F0.3114941260430392
sg19
g2288
sg20
F102.79306159420294
sg21
g7
(g24
S'\x00\x00\x00\x00'
p2289
tp2290
Rp2291
sg30
g7
(g11
S'\x08\xd9\x19*\x07\xd1\xca?'
p2292
tp2293
Rp2294
sg34
g2291
sa(dp2295
g6
g7
(g11
S'\xc5!\xb5\x19v\x9a\xd7?'
p2296
tp2297
Rp2298
sg17
I227
sg18
F0.26410701737875636
sg19
g2298
sg20
F87.1553157349896
sg21
g7
(g24
S'\x00\x00\x00\x00'
p2299
tp2300
Rp2301
sg30
g7
(g11
S'\xe4H\xdaz\x0f\x01\xcb?'
p2302
tp2303
Rp2304
sg34
g2301
sa(dp2305
g6
g7
(g11
S'\x05\x04:\xe9\xb1n\xd1?'
p2306
tp2307
Rp2308
sg17
I228
sg18
F0.2867495271033315
sg19
g2308
sg20
F94.6273439440994
sg21
g7
(g24
S'\x00\x00\x00\x00'
p2309
tp2310
Rp2311
sg30
g7
(g11
S'\xa8=\xfe\x103\xdb\xc7?'
p2312
tp2313
Rp2314
sg34
g2311
sa(dp2315
g6
g7
(g11
S'\xadS\xb8\xef\xc9\xd5\xd0?'
p2316
tp2317
Rp2318
sg17
I229
sg18
F0.27636887508626645
sg19
g2318
sg20
F91.20172877846794
sg21
g7
(g24
S'\x00\x00\x00\x00'
p2319
tp2320
Rp2321
sg30
g7
(g11
S'J\x01+\xad\xe0\x03\xc7?'
p2322
tp2323
Rp2324
sg34
g2321
sa(dp2325
g6
g7
(g11
S'vd\xfe\x81zp\xd1?'
p2326
tp2327
Rp2328
sg17
I230
sg18
F0.3025428194993412
sg19
g2328
sg20
F99.8391304347826
sg21
g7
(g24
S'\x00\x00\x00\x00'
p2329
tp2330
Rp2331
sg30
g7
(g11
S'/\xdf\xe4\xb5\xe4\x88\xc8?'
p2332
tp2333
Rp2334
sg34
g2331
sa(dp2335
g6
g7
(g11
S'\xb7\x9c,\xba\xe6\xcd\xd8?'
p2336
tp2337
Rp2338
sg17
I231
sg18
F0.27709929653679655
sg19
g2338
sg20
F91.44276785714287
sg21
g7
(g24
S'\x00\x00\x00\x00'
p2339
tp2340
Rp2341
sg30
g7
(g11
S'x3\xd8F\xee[\xcc?'
p2342
tp2343
Rp2344
sg34
g2341
sa(dp2345
g6
g7
(g11
S'T\xe8G4h\r\xce?'
p2346
tp2347
Rp2348
sg17
I232
sg18
F0.29839906048058223
sg19
g2348
sg20
F98.47168995859214
sg21
g7
(g24
S'\x00\x00\x00\x00'
p2349
tp2350
Rp2351
sg30
g7
(g11
S'\xb2\x9b\x14Q\xc8\xbf\xc6?'
p2352
tp2353
Rp2354
sg34
g2351
sa(dp2355
g6
g7
(g11
S'\xc5\xb8\\\x93\x10\x04\xd5?'
p2356
tp2357
Rp2358
sg17
I233
sg18
F0.2920991822991823
sg19
g2358
sg20
F96.39273015873016
sg21
g7
(g24
S'\x00\x00\x00\x00'
p2359
tp2360
Rp2361
sg30
g7
(g11
S'\x83\xc8\xc4:6y\xca?'
p2362
tp2363
Rp2364
sg34
g2361
sa(dp2365
g6
g7
(g11
S'\x06*\xcf\x1a\xeb\x9a\xd6?'
p2366
tp2367
Rp2368
sg17
I234
sg18
F0.2947147452788758
sg19
g2368
sg20
F97.25586594202902
sg21
g7
(g24
S'\x00\x00\x00\x00'
p2369
tp2370
Rp2371
sg30
g7
(g11
S'n\xf8\xf99\x04\xa5\xcb?'
p2372
tp2373
Rp2374
sg34
g2371
sa(dp2375
g6
g7
(g11
S'\xee\xa9\xfe\x10\x9e\x88\xd5?'
p2376
tp2377
Rp2378
sg17
I235
sg18
F0.2900550348202524
sg19
g2378
sg20
F95.7181614906833
sg21
g7
(g24
S'\x00\x00\x00\x00'
p2379
tp2380
Rp2381
sg30
g7
(g11
S'!\x15\xc3\xb4@\xbb\xca?'
p2382
tp2383
Rp2384
sg34
g2381
sa(dp2385
g6
g7
(g11
S'\xab\xfcM\x8c\xcf\xb4\xd2?'
p2386
tp2387
Rp2388
sg17
I236
sg18
F0.27618681640420767
sg19
g2388
sg20
F91.14164941338854
sg21
g7
(g24
S'\x00\x00\x00\x00'
p2389
tp2390
Rp2391
sg30
g7
(g11
S'\x8a"\x8b\xad<A\xc8?'
p2392
tp2393
Rp2394
sg34
g2391
sa(dp2395
g6
g7
(g11
S'm\xc0@3ri\xd0?'
p2396
tp2397
Rp2398
sg17
I237
sg18
F0.31182281301629144
sg19
g2398
sg20
F102.90152829537618
sg21
g7
(g24
S'\x00\x00\x00\x00'
p2399
tp2400
Rp2401
sg30
g7
(g11
S'C\n\xd8\x94\xe6>\xc8?'
p2402
tp2403
Rp2404
sg34
g2401
sa(dp2405
g6
g7
(g11
S'|\xaa\xd6\x96\xdd\xc4\xd6?'
p2406
tp2407
Rp2408
sg17
I238
sg18
F0.2563156168308343
sg19
g2408
sg20
F84.58415355417532
sg21
g7
(g24
S'\x00\x00\x00\x00'
p2409
tp2410
Rp2411
sg30
g7
(g11
S'\xbe\x1f\x84x\x8f\x1d\xca?'
p2412
tp2413
Rp2414
sg34
g2411
sa(dp2415
g6
g7
(g11
S'\xd1\xe3\x07\x9e\x81\xee\xd4?'
p2416
tp2417
Rp2418
sg17
I239
sg18
F0.2587274609448524
sg19
g2418
sg20
F85.38006211180128
sg21
g7
(g24
S'\x00\x00\x00\x00'
p2419
tp2420
Rp2421
sg30
g7
(g11
S'\xca\xe5\xe8\xd3T\xfe\xc8?'
p2422
tp2423
Rp2424
sg34
g2421
sa(dp2425
g6
g7
(g11
S'\x12/oFh\x93\xd0?'
p2426
tp2427
Rp2428
sg17
I240
sg18
F0.30171563774389865
sg19
g2428
sg20
F99.56616045548655
sg21
g7
(g24
S'\x00\x00\x00\x00'
p2429
tp2430
Rp2431
sg30
g7
(g11
S'%\x00\x17Az\xec\xc7?'
p2432
tp2433
Rp2434
sg34
g2431
sa(dp2435
g6
g7
(g11
S'\xa9v\x17\xd3\xca\x05\xd7?'
p2436
tp2437
Rp2438
sg17
I241
sg18
F0.2621818464144551
sg19
g2438
sg20
F86.52000931677017
sg21
g7
(g24
S'\x00\x00\x00\x00'
p2439
tp2440
Rp2441
sg30
g7
(g11
S'\xb2\xb8\rv\xeb\x88\xca?'
p2442
tp2443
Rp2444
sg34
g2441
sa(dp2445
g6
g7
(g11
S'\x1d\x05h7\xd9\xd1\xcf?'
p2446
tp2447
Rp2448
sg17
I242
sg18
F0.310402070393375
sg19
g2448
sg20
F102.43268322981375
sg21
g7
(g24
S'\x00\x00\x00\x00'
p2449
tp2450
Rp2451
sg30
g7
(g11
S'\xce\x8c\xa0\x80\xb3\xd9\xc7?'
p2452
tp2453
Rp2454
sg34
g2451
sa(dp2455
g6
g7
(g11
S'?\xac\xf9\x94\xb9P\xd1?'
p2456
tp2457
Rp2458
sg17
I243
sg18
F0.29476604141357104
sg19
g2458
sg20
F97.27279366647845
sg21
g7
(g24
S'\x00\x00\x00\x00'
p2459
tp2460
Rp2461
sg30
g7
(g11
S'\\\xbc\x9f\xfa\xc7\x1e\xc8?'
p2462
tp2463
Rp2464
sg34
g2461
sa(dp2465
g6
g7
(g11
S"\xfd\xc9\xc9.'\x0c\xd3?"
p2466
tp2467
Rp2468
sg17
I244
sg18
F0.29898602484472064
sg19
g2468
sg20
F98.66538819875781
sg21
g7
(g24
S'\x00\x00\x00\x00'
p2469
tp2470
Rp2471
sg30
g7
(g11
S'\x8dh\xf8N~t\xc9?'
p2472
tp2473
Rp2474
sg34
g2471
sa(dp2475
g6
g7
(g11
S'v\x9a\xce\x8a\x97a\xd2?'
p2476
tp2477
Rp2478
sg17
I245
sg18
F0.29348697116088435
sg19
g2478
sg20
F96.85070048309184
sg21
g7
(g24
S'\x00\x00\x00\x00'
p2479
tp2480
Rp2481
sg30
g7
(g11
S'\x1f\x18\x07\xbf\xb8\xc6\xc8?'
p2482
tp2483
Rp2484
sg34
g2481
sa(dp2485
g6
g7
(g11
S'\x16\xfdI\xdf\xdb}\xd5?'
p2486
tp2487
Rp2488
sg17
I246
sg18
F0.2704924441098354
sg19
g2488
sg20
F89.26250655624568
sg21
g7
(g24
S'\x00\x00\x00\x00'
p2489
tp2490
Rp2491
sg30
g7
(g11
S'\x1d\xb6\xbc\x9bg\xde\xc9?'
p2492
tp2493
Rp2494
sg34
g2491
sa(dp2495
g6
g7
(g11
S'#\x81\xe38\x9c\xc4\xd0?'
p2496
tp2497
Rp2498
sg17
I247
sg18
F0.2862240186544534
sg19
g2498
sg20
F94.45392615596963
sg21
g7
(g24
S'\x00\x00\x00\x00'
p2499
tp2500
Rp2501
sg30
g7
(g11
S'2:\x80\xd8\x11d\xc7?'
p2502
tp2503
Rp2504
sg34
g2501
sa(dp2505
g6
g7
(g11
S'27\x04\xd7\x87\x86\xd6?'
p2506
tp2507
Rp2508
sg17
I248
sg18
F0.289638586172282
sg19
g2508
sg20
F95.58073343685307
sg21
g7
(g24
S'\x00\x00\x00\x00'
p2509
tp2510
Rp2511
sg30
g7
(g11
S'2\xfb8\xbf\xfa_\xcb?'
p2512
tp2513
Rp2514
sg34
g2511
sa(dp2515
g6
g7
(g11
S'\x94\xa1\xf7\xf5V\x9f\xd0?'
p2516
tp2517
Rp2518
sg17
I249
sg18
F0.3084378097747666
sg19
g2518
sg20
F101.78447722567297
sg21
g7
(g24
S'\x00\x00\x00\x00'
p2519
tp2520
Rp2521
sg30
g7
(g11
S'j\x9bHD\xdb=\xc8?'
p2522
tp2523
Rp2524
sg34
g2521
sa(dp2525
g6
g7
(g11
S'v\x17\x01^\xbap\xd5?'
p2526
tp2527
Rp2528
sg17
I250
sg18
F0.2825106499780414
sg19
g2528
sg20
F93.22851449275365
sg21
g7
(g24
S'\x00\x00\x00\x00'
p2529
tp2530
Rp2531
sg30
g7
(g11
S'8\xa1\xbd\xf1\xebX\xca?'
p2532
tp2533
Rp2534
sg34
g2531
sa(dp2535
g6
g7
(g11
S'\xf0\t\xd7\xb7P1\xd2?'
p2536
tp2537
Rp2538
sg17
I251
sg18
F0.27925518382583614
sg19
g2538
sg20
F92.15421066252593
sg21
g7
(g24
S'\x00\x00\x00\x00'
p2539
tp2540
Rp2541
sg30
g7
(g11
S'}\x90\x85\x91\x16\x0b\xc8?'
p2542
tp2543
Rp2544
sg34
g2541
sa(dp2545
g6
g7
(g11
S'@\x9eO\xd2G\xce\xd0?'
p2546
tp2547
Rp2548
sg17
I252
sg18
F0.2954541151682457
sg19
g2548
sg20
F97.49985800552109
sg21
g7
(g24
S'\x00\x00\x00\x00'
p2549
tp2550
Rp2551
sg30
g7
(g11
S'\xbd\t:wU\xcf\xc7?'
p2552
tp2553
Rp2554
sg34
g2551
sa(dp2555
g6
g7
(g11
S'\nMQk\xda;\xd0?'
p2556
tp2557
Rp2558
sg17
I253
sg18
F0.2880332392245437
sg19
g2558
sg20
F95.05096894409942
sg21
g7
(g24
S'\x00\x00\x00\x00'
p2559
tp2560
Rp2561
sg30
g7
(g11
S'\xe6m\xa6\xec\xa8\x1c\xc7?'
p2562
tp2563
Rp2564
sg34
g2561
sa(dp2565
g6
g7
(g11
S'&nC\x80\xa2\x90\xd4?'
p2566
tp2567
Rp2568
sg17
I254
sg18
F0.30283111393437484
sg19
g2568
sg20
F99.9342675983437
sg21
g7
(g24
S'\x00\x00\x00\x00'
p2569
tp2570
Rp2571
sg30
g7
(g11
S'\xcb|\xef\xd5z\xa1\xca?'
p2572
tp2573
Rp2574
sg34
g2571
sa(dp2575
g6
g7
(g11
S'\xbb\xf2\xde\xe5\xbak\xce?'
p2576
tp2577
Rp2578
sg17
I255
sg18
F0.29590497443377883
sg19
g2578
sg20
F97.64864156314701
sg21
g7
(g24
S'\x00\x00\x00\x00'
p2579
tp2580
Rp2581
sg30
g7
(g11
S'p\x19\x9c>\xfb\xc3\xc6?'
p2582
tp2583
Rp2584
sg34
g2581
sa(dp2585
g6
g7
(g11
S'\xc3H\x80\x9bU\x11\xcf?'
p2586
tp2587
Rp2588
sg17
I256
sg18
F0.298258943471987
sg19
g2588
sg20
F98.4254513457557
sg21
g7
(g24
S'\x00\x00\x00\x00'
p2589
tp2590
Rp2591
sg30
g7
(g11
S'R\xb3(\xfd\xe4\x14\xc7?'
p2592
tp2593
Rp2594
sg34
g2591
sa(dp2595
g6
g7
(g11
S'\x17\x83(\x0fL\xb3\xd6?'
p2596
tp2597
Rp2598
sg17
I257
sg18
F0.28359058755254407
sg19
g2598
sg20
F93.58489389233954
sg21
g7
(g24
S'\x00\x00\x00\x00'
p2599
tp2600
Rp2601
sg30
g7
(g11
S'S\xa6\x9av\xc3;\xcb?'
p2602
tp2603
Rp2604
sg34
g2601
sa(dp2605
g6
g7
(g11
S'JA\xe7\x8a\xf6e\xd3?'
p2606
tp2607
Rp2608
sg17
I258
sg18
F0.3096486746345443
sg19
g2608
sg20
F102.18406262939962
sg21
g7
(g24
S'\x00\x00\x00\x00'
p2609
tp2610
Rp2611
sg30
g7
(g11
S'\x80\x85\xbc\xcf\xd4$\xca?'
p2612
tp2613
Rp2614
sg34
g2611
sa(dp2615
g6
g7
(g11
S'\x84a\x87\x00\xd6\xa2\xd4?'
p2616
tp2617
Rp2618
sg17
I259
sg18
F0.2821613965744399
sg19
g2618
sg20
F93.11326086956517
sg21
g7
(g24
S'\x00\x00\x00\x00'
p2619
tp2620
Rp2621
sg30
g7
(g11
S'\xc8\xc5ns\xd8\xcb\xc9?'
p2622
tp2623
Rp2624
sg34
g2621
sa(dp2625
g6
g7
(g11
S'?\x1bI\x83\xce\xb3\xd4?'
p2626
tp2627
Rp2628
sg17
I260
sg18
F0.3064399742769308
sg19
g2628
sg20
F101.12519151138717
sg21
g7
(g24
S'\x00\x00\x00\x00'
p2629
tp2630
Rp2631
sg30
g7
(g11
S'Z\x8cy\x9dX\xe0\xca?'
p2632
tp2633
Rp2634
sg34
g2631
sa(dp2635
g6
g7
(g11
S'e3}\xdd\x18|\xce?'
p2636
tp2637
Rp2638
sg17
I261
sg18
F0.29175177290503385
sg19
g2638
sg20
F96.27808505866118
sg21
g7
(g24
S'\x00\x00\x00\x00'
p2639
tp2640
Rp2641
sg30
g7
(g11
S'\xf6\x9f\x06\xb5\x12\x9c\xc6?'
p2642
tp2643
Rp2644
sg34
g2641
sa(dp2645
g6
g7
(g11
S'e\xa7\xffH\xda\xeb\xd7?'
p2646
tp2647
Rp2648
sg17
I262
sg18
F0.2780961478135391
sg19
g2648
sg20
F91.7717287784679
sg21
g7
(g24
S'\x00\x00\x00\x00'
p2649
tp2650
Rp2651
sg30
g7
(g11
S'p\x8d\xaa\xb6\x1e\xd0\xcb?'
p2652
tp2653
Rp2654
sg34
g2651
sa(dp2655
g6
g7
(g11
S'=;q\x88{\xb5\xd7?'
p2656
tp2657
Rp2658
sg17
I263
sg18
F0.26725195537152047
sg19
g2658
sg20
F88.19314527260175
sg21
g7
(g24
S'\x00\x00\x00\x00'
p2659
tp2660
Rp2661
sg30
g7
(g11
S'(LP\xfcl5\xcb?'
p2662
tp2663
Rp2664
sg34
g2661
sa(dp2665
g6
g7
(g11
S'\x1cj\x17\xc2{x\xcf?'
p2666
tp2667
Rp2668
sg17
I264
sg18
F0.29450975071627256
sg19
g2668
sg20
F97.18821773636995
sg21
g7
(g24
S'\x00\x00\x00\x00'
p2669
tp2670
Rp2671
sg30
g7
(g11
S'\xb0vO\x89S\x0e\xc7?'
p2672
tp2673
Rp2674
sg34
g2671
sa(dp2675
g6
g7
(g11
S'\xb8\x91|\xc9P\xa2\xd6?'
p2676
tp2677
Rp2678
sg17
I265
sg18
F0.3080092027939855
sg19
g2678
sg20
F101.64303692201523
sg21
g7
(g24
S'\x00\x00\x00\x00'
p2679
tp2680
Rp2681
sg30
g7
(g11
S'Ga\xcd\xad(;\xcc?'
p2682
tp2683
Rp2684
sg34
g2681
sa(dp2685
g6
g7
(g11
S"\xf8n\xd1\xd5'\xde\xd3?"
p2686
tp2687
Rp2688
sg17
I266
sg18
F0.26631227649162437
sg19
g2688
sg20
F87.88305124223604
sg21
g7
(g24
S'\x00\x00\x00\x00'
p2689
tp2690
Rp2691
sg30
g7
(g11
S'\xf0\xa08R\x9c\x9b\xc8?'
p2692
tp2693
Rp2694
sg34
g2691
sa(dp2695
g6
g7
(g11
S'r\x04\xa1\x1f\xaa\xcb\xd7?'
p2696
tp2697
Rp2698
sg17
I267
sg18
F0.26451485873224995
sg19
g2698
sg20
F87.28990338164247
sg21
g7
(g24
S'\x00\x00\x00\x00'
p2699
tp2700
Rp2701
sg30
g7
(g11
S'\x0c\x9eX<Q&\xcb?'
p2702
tp2703
Rp2704
sg34
g2701
sa(dp2705
g6
g7
(g11
S'\x84\x15\x84\n\x07\x80\xd8?'
p2706
tp2707
Rp2708
sg17
I268
sg18
F0.2625627025953112
sg19
g2708
sg20
F86.6456918564527
sg21
g7
(g24
S'\x00\x00\x00\x00'
p2709
tp2710
Rp2711
sg30
g7
(g11
S'\\\x07z\x8e<\x89\xcb?'
p2712
tp2713
Rp2714
sg34
g2711
sa(dp2715
g6
g7
(g11
S'\xae\xab\xc8\x05\xeb\x1c\xd1?'
p2716
tp2717
Rp2718
sg17
I269
sg18
F0.3002647672375934
sg19
g2718
sg20
F99.0873731884058
sg21
g7
(g24
S'\x00\x00\x00\x00'
p2719
tp2720
Rp2721
sg30
g7
(g11
S'z\xfa\x17\xd3M8\xc8?'
p2722
tp2723
Rp2724
sg34
g2721
sa(dp2725
g6
g7
(g11
S'\xd3\xe4\xf1\xc6\xc3\x8f\xce?'
p2726
tp2727
Rp2728
sg17
I270
sg18
F0.29582546061024334
sg19
g2728
sg20
F97.62240200138031
sg21
g7
(g24
S'\x00\x00\x00\x00'
p2729
tp2730
Rp2731
sg30
g7
(g11
S'\xd4\xd2\x16\xde\x1f\xcf\xc6?'
p2732
tp2733
Rp2734
sg34
g2731
sa(dp2735
g6
g7
(g11
S'\xd2Q\xd7\xb0#\x97\xd0?'
p2736
tp2737
Rp2738
sg17
I271
sg18
F0.2858997145366711
sg19
g2738
sg20
F94.34690579710147
sg21
g7
(g24
S'\x00\x00\x00\x00'
p2739
tp2740
Rp2741
sg30
g7
(g11
S'T]\xdf\xab6B\xc7?'
p2742
tp2743
Rp2744
sg34
g2741
sa(dp2745
g6
g7
(g11
S'\x03(=\x15\xbf\x8f\xd7?'
p2746
tp2747
Rp2748
sg17
I272
sg18
F0.26287983876027343
sg19
g2748
sg20
F86.75034679089023
sg21
g7
(g24
S'\x00\x00\x00\x00'
p2749
tp2750
Rp2751
sg30
g7
(g11
S'\x80\xe7\x88\\\x83\xec\xca?'
p2752
tp2753
Rp2754
sg34
g2751
sa(dp2755
g6
g7
(g11
S'\xe4QO\xa8\x12\x8f\xd6?'
p2756
tp2757
Rp2758
sg17
I273
sg18
F0.2581441213375997
sg19
g2758
sg20
F85.18756004140789
sg21
g7
(g24
S'\x00\x00\x00\x00'
p2759
tp2760
Rp2761
sg30
g7
(g11
S'2\xaa\x01\xb8\xab\r\xca?'
p2762
tp2763
Rp2764
sg34
g2761
sa(dp2765
g6
g7
(g11
S'\x86\xdb\xed\xebs{\xd1?'
p2766
tp2767
Rp2768
sg17
I274
sg18
F0.29393429402722876
sg19
g2768
sg20
F96.9983170289855
sg21
g7
(g24
S'\x00\x00\x00\x00'
p2769
tp2770
Rp2771
sg30
g7
(g11
S'\x92j\x9fx.2\xc8?'
p2772
tp2773
Rp2774
sg34
g2771
sa(dp2775
g6
g7
(g11
S'\x98\xd3M\x12\xea\x92\xd2?'
p2776
tp2777
Rp2778
sg17
I275
sg18
F0.3109148451387582
sg19
g2778
sg20
F102.60189889579021
sg21
g7
(g24
S'\x00\x00\x00\x00'
p2779
tp2780
Rp2781
sg30
g7
(g11
S'\xedA\xd2L\xf6\xa5\xc9?'
p2782
tp2783
Rp2784
sg34
g2781
sa(dp2785
g6
g7
(g11
S'\x04\x92\x91\xad|\x19\xd5?'
p2786
tp2787
Rp2788
sg17
I276
sg18
F0.2547356588660936
sg19
g2788
sg20
F84.06276742581089
sg21
g7
(g24
S'\x00\x00\x00\x00'
p2789
tp2790
Rp2791
sg30
g7
(g11
S':\x1f_Pb\xef\xc8?'
p2792
tp2793
Rp2794
sg34
g2791
sa(dp2795
g6
g7
(g11
S"o'\xbb\x8a\x86\xe9\xd1?"
p2796
tp2797
Rp2798
sg17
I277
sg18
F0.3026178085199826
sg19
g2798
sg20
F99.86387681159427
sg21
g7
(g24
S'\x00\x00\x00\x00'
p2799
tp2800
Rp2801
sg30
g7
(g11
S'D\x12\x9e\x15i\xda\xc8?'
p2802
tp2803
Rp2804
sg34
g2801
sa(dp2805
g6
g7
(g11
S"*\xdd>9\xd8'\xd1?"
p2806
tp2807
Rp2808
sg17
I278
sg18
F0.28203311845159673
sg19
g2808
sg20
F93.07092908902692
sg21
g7
(g24
S'\x00\x00\x00\x00'
p2809
tp2810
Rp2811
sg30
g7
(g11
S'\xec&\x85=sx\xc7?'
p2812
tp2813
Rp2814
sg34
g2811
sa(dp2815
g6
g7
(g11
S'\xfa\x147)\x13\n\xd2?'
p2816
tp2817
Rp2818
sg17
I279
sg18
F0.3080621353284398
sg19
g2818
sg20
F101.66050465838514
sg21
g7
(g24
S'\x00\x00\x00\x00'
p2819
tp2820
Rp2821
sg30
g7
(g11
S'\xe8=\xdf\x9a\x93+\xc9?'
p2822
tp2823
Rp2824
sg34
g2821
sa(dp2825
g6
g7
(g11
S')\xc1(\xeaIZ\xd4?'
p2826
tp2827
Rp2828
sg17
I280
sg18
F0.31300872074785124
sg19
g2828
sg20
F103.29287784679092
sg21
g7
(g24
S'\x00\x00\x00\x00'
p2829
tp2830
Rp2831
sg30
g7
(g11
S'\xb7m\xefmj\xec\xca?'
p2832
tp2833
Rp2834
sg34
g2831
sa(dp2835
g6
g7
(g11
S'\xe0\x8a<\\\xca,\xd8?'
p2836
tp2837
Rp2838
sg17
I281
sg18
F0.26842146098667824
sg19
g2838
sg20
F88.57908212560382
sg21
g7
(g24
S'\x00\x00\x00\x00'
p2839
tp2840
Rp2841
sg30
g7
(g11
S'*F\x92\x0b\xbd\x91\xcb?'
p2842
tp2843
Rp2844
sg34
g2841
sa(dp2845
g6
g7
(g11
S'\xd3k\xc5&\xafD\xd5?'
p2846
tp2847
Rp2848
sg17
I282
sg18
F0.26368287220026343
sg19
g2848
sg20
F87.01534782608694
sg21
g7
(g24
S'\x00\x00\x00\x00'
p2849
tp2850
Rp2851
sg30
g7
(g11
S'85\xf3\xd9\xe8m\xc9?'
p2852
tp2853
Rp2854
sg34
g2851
sa(dp2855
g6
g7
(g11
S'JW\x87X=\xe6\xd3?'
p2856
tp2857
Rp2858
sg17
I283
sg18
F0.2895181331953072
sg19
g2858
sg20
F95.54098395445138
sg21
g7
(g24
S'\x00\x00\x00\x00'
p2859
tp2860
Rp2861
sg30
g7
(g11
S'$\xef\xf6Ex\x9e\xc9?'
p2862
tp2863
Rp2864
sg34
g2861
sa(dp2865
g6
g7
(g11
S'\x88:\x8a\x00f\xa5\xd4?'
p2866
tp2867
Rp2868
sg17
I284
sg18
F0.26166548716983506
sg19
g2868
sg20
F86.34961076604557
sg21
g7
(g24
S'\x00\x00\x00\x00'
p2869
tp2870
Rp2871
sg30
g7
(g11
S'\xa6MW\x11\xaf\xed\xc8?'
p2872
tp2873
Rp2874
sg34
g2871
sa(dp2875
g6
g7
(g11
S'\xe6M|\xcc\xdaU\xd5?'
p2876
tp2877
Rp2878
sg17
I285
sg18
F0.2834588179936005
sg19
g2878
sg20
F93.54140993788818
sg21
g7
(g24
S'\x00\x00\x00\x00'
p2879
tp2880
Rp2881
sg30
g7
(g11
S'\xba\xcd\xd4\xd5\\Q\xca?'
p2882
tp2883
Rp2884
sg34
g2881
sa(dp2885
g6
g7
(g11
S'\xf7\tM\xe4\x95\x93\xd6?'
p2886
tp2887
Rp2888
sg17
I286
sg18
F0.26136316006859484
sg19
g2888
sg20
F86.2498428226363
sg21
g7
(g24
S'\x00\x00\x00\x00'
p2889
tp2890
Rp2891
sg30
g7
(g11
S'\xd7\xf9\xad\xf5\xd63\xca?'
p2892
tp2893
Rp2894
sg34
g2891
sa(dp2895
g6
g7
(g11
S';\x8b\xce|\x91\xbc\xd4?'
p2896
tp2897
Rp2898
sg17
I287
sg18
F0.30502848882196715
sg19
g2898
sg20
F100.65940131124916
sg21
g7
(g24
S'\x00\x00\x00\x00'
p2899
tp2900
Rp2901
sg30
g7
(g11
S'\x1e%\xd8!\xc5\xd6\xca?'
p2902
tp2903
Rp2904
sg34
g2901
sa(dp2905
g6
g7
(g11
S'\xd2\x16y>uY\xd7?'
p2906
tp2907
Rp2908
sg17
I288
sg18
F0.27809822291235337
sg19
g2908
sg20
F91.7724135610766
sg21
g7
(g24
S'\x00\x00\x00\x00'
p2909
tp2910
Rp2911
sg30
g7
(g11
S'vce\xd2\x8bn\xcb?'
p2912
tp2913
Rp2914
sg34
g2911
sa(dp2915
g6
g7
(g11
S'\xdftx\xb7\xe2\x8a\xd0?'
p2916
tp2917
Rp2918
sg17
I289
sg18
F0.28525188844971466
sg19
g2918
sg20
F94.13312318840583
sg21
g7
(g24
S'\x00\x00\x00\x00'
p2919
tp2920
Rp2921
sg30
g7
(g11
S'\xed\x8e\xfb\xe6\xf72\xc7?'
p2922
tp2923
Rp2924
sg34
g2921
sa(dp2925
g6
g7
(g11
S'\x06w/Cb\x06\xd3?'
p2926
tp2927
Rp2928
sg17
I290
sg18
F0.28869669521299957
sg19
g2928
sg20
F95.26990942028985
sg21
g7
(g24
S'\x00\x00\x00\x00'
p2929
tp2930
Rp2931
sg30
g7
(g11
S'j\x82\xdb\xa4B\x00\xc9?'
p2932
tp2933
Rp2934
sg34
g2931
sa(dp2935
g6
g7
(g11
S'\xf3*\x1c\xe3&\x9c\xd5?'
p2936
tp2937
Rp2938
sg17
I291
sg18
F0.2719284103979756
sg19
g2938
sg20
F89.73637543133195
sg21
g7
(g24
S'\x00\x00\x00\x00'
p2939
tp2940
Rp2941
sg30
g7
(g11
S'H\xfb\xfd\xdeH\x02\xca?'
p2942
tp2943
Rp2944
sg34
g2941
sa(dp2945
g6
g7
(g11
S'lw:\xdf\x90?\xd3?'
p2946
tp2947
Rp2948
sg17
I292
sg18
F0.3029953337725078
sg19
g2948
sg20
F99.98846014492757
sg21
g7
(g24
S'\x00\x00\x00\x00'
p2949
tp2950
Rp2951
sg30
g7
(g11
S'\xa0\xc4\xb7\x9b\x8f\xc2\xc9?'
p2952
tp2953
Rp2954
sg34
g2951
sa(dp2955
g6
g7
(g11
S'\x94\xcc\xe6\x1004\xd2?'
p2956
tp2957
Rp2958
sg17
I293
sg18
F0.29260620072359217
sg19
g2958
sg20
F96.56004623878542
sg21
g7
(g24
S'\x00\x00\x00\x00'
p2959
tp2960
Rp2961
sg30
g7
(g11
S'\xd3\xb0\r\xf3\xd4\x9e\xc8?'
p2962
tp2963
Rp2964
sg34
g2961
sa(dp2965
g6
g7
(g11
S'V\xe2\xd7\x94\x13\x82\xd7?'
p2966
tp2967
Rp2968
sg17
I294
sg18
F0.29113129117259556
sg19
g2968
sg20
F96.07332608695654
sg21
g7
(g24
S'\x00\x00\x00\x00'
p2969
tp2970
Rp2971
sg30
g7
(g11
S'&5\xa2%\xfb\x17\xcc?'
p2972
tp2973
Rp2974
sg34
g2971
sa(dp2975
g6
g7
(g11
S'\x11=F}\x15\xc8\xd2?'
p2976
tp2977
Rp2978
sg17
I295
sg18
F0.2985904942279943
sg19
g2978
sg20
F98.53486309523811
sg21
g7
(g24
S'\x00\x00\x00\x00'
p2979
tp2980
Rp2981
sg30
g7
(g11
S'\xb4\x00\x1e2\xcbB\xc9?'
p2982
tp2983
Rp2984
sg34
g2981
sa(dp2985
g6
g7
(g11
S'\xecE\x7fT\x00k\xd4?'
p2986
tp2987
Rp2988
sg17
I296
sg18
F0.25717601480644964
sg19
g2988
sg20
F84.86808488612837
sg21
g7
(g24
S'\x00\x00\x00\x00'
p2989
tp2990
Rp2991
sg30
g7
(g11
S'\x12P&%\xb7\x95\xc8?'
p2992
tp2993
Rp2994
sg34
g2991
sa(dp2995
g6
g7
(g11
S' \x88X\xb5\x86\xf6\xd4?'
p2996
tp2997
Rp2998
sg17
I297
sg18
F0.2562218897044984
sg19
g2998
sg20
F84.55322360248447
sg21
g7
(g24
S'\x00\x00\x00\x00'
p2999
tp3000
Rp3001
sg30
g7
(g11
S'\x13)]xO\xe8\xc8?'
p3002
tp3003
Rp3004
sg34
g3001
sa(dp3005
g6
g7
(g11
S'z3\xe3Cr\xfd\xd3?'
p3006
tp3007
Rp3008
sg17
I298
sg18
F0.2917636426375557
sg19
g3008
sg20
F96.28200207039339
sg21
g7
(g24
S'\x00\x00\x00\x00'
p3009
tp3010
Rp3011
sg30
g7
(g11
S'\xad\xd8#\xc9w\xc6\xc9?'
p3012
tp3013
Rp3014
sg34
g3011
sa(dp3015
g6
g7
(g11
S'\xfb\xb1\xe8\x915\xdb\xcf?'
p3016
tp3017
Rp3018
sg17
I299
sg18
F0.28643559403559404
sg19
g3018
sg20
F94.52374603174604
sg21
g7
(g24
S'\x00\x00\x00\x00'
p3019
tp3020
Rp3021
sg30
g7
(g11
S'\x9eho)\x0b\xd7\xc6?'
p3022
tp3023
Rp3024
sg34
g3021
sa(dp3025
g6
g7
(g11
S'*\x08.\x84\x16u\xd6?'
p3026
tp3027
Rp3028
sg17
I300
sg18
F0.2639585686053076
sg19
g3028
sg20
F87.10632763975151
sg21
g7
(g24
S'\x00\x00\x00\x00'
p3029
tp3030
Rp3031
sg30
g7
(g11
S'\x9e\xcb\xbaT\xdb;\xca?'
p3032
tp3033
Rp3034
sg34
g3031
sa(dp3035
g6
g7
(g11
S'\xa4\x1c\x16\xef\xf2o\xd4?'
p3036
tp3037
Rp3038
sg17
I301
sg18
F0.2778491043980176
sg19
g3038
sg20
F91.69020445134579
sg21
g7
(g24
S'\x00\x00\x00\x00'
p3039
tp3040
Rp3041
sg30
g7
(g11
S'\x88\xde(\xb2\xd1z\xc9?'
p3042
tp3043
Rp3044
sg34
g3041
sa(dp3045
g6
g7
(g11
S'_{\xd6>\x83\x14\xd8?'
p3046
tp3047
Rp3048
sg17
I302
sg18
F0.27466600058556584
sg19
g3048
sg20
F90.63978019323673
sg21
g7
(g24
S'\x00\x00\x00\x00'
p3049
tp3050
Rp3051
sg30
g7
(g11
S'q\xbf2\xa2\xc2\xc5\xcb?'
p3052
tp3053
Rp3054
sg34
g3051
sa(dp3055
g6
g7
(g11
S'\xbf[\x94V%\x96\xd8?'
p3056
tp3057
Rp3058
sg17
I303
sg18
F0.2666117803291715
sg19
g3058
sg20
F87.9818875086266
sg21
g7
(g24
S'\x00\x00\x00\x00'
p3059
tp3060
Rp3061
sg30
g7
(g11
S',\xe7\x97v5\xc4\xcb?'
p3062
tp3063
Rp3064
sg34
g3061
sa(dp3065
g6
g7
(g11
S'\xb3\x1c$\x1a\ro\xd1?'
p3066
tp3067
Rp3068
sg17
I304
sg18
F0.27453978710500454
sg19
g3068
sg20
F90.5981297446515
sg21
g7
(g24
S'\x00\x00\x00\x00'
p3069
tp3070
Rp3071
sg30
g7
(g11
S'\x11B\xf0\xf3\x12V\xc7?'
p3072
tp3073
Rp3074
sg34
g3071
sa(dp3075
g6
g7
(g11
S'\x81\xb4_\\C\x12\xd2?'
p3076
tp3077
Rp3078
sg17
I305
sg18
F0.2876991394274004
sg19
g3078
sg20
F94.94071601104213
sg21
g7
(g24
S'\x00\x00\x00\x00'
p3079
tp3080
Rp3081
sg30
g7
(g11
S'\xe2\x10\x12\x02\x9eR\xc8?'
p3082
tp3083
Rp3084
sg34
g3081
sa(dp3085
g6
g7
(g11
S'!\xc1\xeb\xe0\xd6\xc2\xd2?'
p3086
tp3087
Rp3088
sg17
I306
sg18
F0.28004806998556997
sg19
g3088
sg20
F92.4158630952381
sg21
g7
(g24
S'\x00\x00\x00\x00'
p3089
tp3090
Rp3091
sg30
g7
(g11
S'*\x10\xee\xbe\xc3t\xc8?'
p3092
tp3093
Rp3094
sg34
g3091
sa(dp3095
g6
g7
(g11
S'n\x8e\xea\xc9\x08F\xd6?'
p3096
tp3097
Rp3098
sg17
I307
sg18
F0.27290860154338414
sg19
g3098
sg20
F90.05983850931676
sg21
g7
(g24
S'\x00\x00\x00\x00'
p3099
tp3100
Rp3101
sg30
g7
(g11
S'>\x8b\xae\xf3>~\xca?'
p3102
tp3103
Rp3104
sg34
g3101
sa(dp3105
g6
g7
(g11
S'\x03\xbc;G?=\xd2?'
p3106
tp3107
Rp3108
sg17
I308
sg18
F0.2809188688123471
sg19
g3108
sg20
F92.70322670807455
sg21
g7
(g24
S'\x00\x00\x00\x00'
p3109
tp3110
Rp3111
sg30
g7
(g11
S'6\xf77\xf16%\xc8?'
p3112
tp3113
Rp3114
sg34
g3111
sa(dp3115
g6
g7
(g11
S'\xf66\x8a\xec\xd6o\xce?'
p3116
tp3117
Rp3118
sg17
I309
sg18
F0.29604125886191107
sg19
g3118
sg20
F97.69361542443066
sg21
g7
(g24
S'\x00\x00\x00\x00'
p3119
tp3120
Rp3121
sg30
g7
(g11
S'\x9al\xb1\xff\xd6\xc6\xc6?'
p3122
tp3123
Rp3124
sg34
g3121
sa(dp3125
g6
g7
(g11
S'L\x9ap\x1e\x12\x87\xd5?'
p3126
tp3127
Rp3128
sg17
I310
sg18
F0.2897895852939334
sg19
g3128
sg20
F95.63056314699801
sg21
g7
(g24
S'\x00\x00\x00\x00'
p3129
tp3130
Rp3131
sg30
g7
(g11
S'J\x94\x8d}R\xb7\xca?'
p3132
tp3133
Rp3134
sg34
g3131
sa(dp3135
g6
g7
(g11
S'\xd9-\xf6\xb6\xe2\x80\xd1?'
p3136
tp3137
Rp3138
sg17
I311
sg18
F0.3066738774912689
sg19
g3138
sg20
F101.20237957211873
sg21
g7
(g24
S'\x00\x00\x00\x00'
p3139
tp3140
Rp3141
sg30
g7
(g11
S'%\x96\xb3\x1f\xf4\xc0\xc8?'
p3142
tp3143
Rp3144
sg34
g3141
sa(dp3145
g6
g7
(g11
S'{\xb4\x1d-\xbc\xde\xd6?'
p3146
tp3147
Rp3148
sg17
I312
sg18
F0.28142160737812916
sg19
g3148
sg20
F92.86913043478262
sg21
g7
(g24
S'\x00\x00\x00\x00'
p3149
tp3150
Rp3151
sg30
g7
(g11
S'\x08jl\xf7\x07A\xcb?'
p3152
tp3153
Rp3154
sg34
g3151
sa(dp3155
g6
g7
(g11
S'z!\x8e% i\xd7?'
p3156
tp3157
Rp3158
sg17
I313
sg18
F0.27101248562226826
sg19
g3158
sg20
F89.43412025534852
sg21
g7
(g24
S'\x00\x00\x00\x00'
p3159
tp3160
Rp3161
sg30
g7
(g11
S'zrv\x99\x98+\xcb?'
p3162
tp3163
Rp3164
sg34
g3161
sa(dp3165
g6
g7
(g11
S'\xb6\xc9n\x988m\xd5?'
p3166
tp3167
Rp3168
sg17
I314
sg18
F0.26250144300144296
sg19
g3168
sg20
F86.62547619047618
sg21
g7
(g24
S'\x00\x00\x00\x00'
p3169
tp3170
Rp3171
sg30
g7
(g11
S'\xee3\xc3\xa1\x07|\xc9?'
p3172
tp3173
Rp3174
sg34
g3171
sa(dp3175
g6
g7
(g11
S'<T\xd7\xc7k\x00\xd7?'
p3176
tp3177
Rp3178
sg17
I315
sg18
F0.257818594328377
sg19
g3178
sg20
F85.08013612836442
sg21
g7
(g24
S'\x00\x00\x00\x00'
p3179
tp3180
Rp3181
sg30
g7
(g11
S"'_b:\xaeU\xca?"
p3182
tp3183
Rp3184
sg34
g3181
sa(dp3185
g6
g7
(g11
S'\x1d\xc5=\xcaM\xd9\xd1?'
p3186
tp3187
Rp3188
sg17
I316
sg18
F0.3127253121274861
sg19
g3188
sg20
F103.19935300207042
sg21
g7
(g24
S'\x00\x00\x00\x00'
p3189
tp3190
Rp3191
sg30
g7
(g11
S'\x8a\x8526\xff=\xc9?'
p3192
tp3193
Rp3194
sg34
g3191
sa(dp3195
g6
g7
(g11
S'\xfaR\xddIV\xb3\xd1?'
p3196
tp3197
Rp3198
sg17
I317
sg18
F0.27311363636363634
sg19
g3198
sg20
F90.1275
sg21
g7
(g24
S'\x00\x00\x00\x00'
p3199
tp3200
Rp3201
sg30
g7
(g11
S'+\xe2IE\x05t\xc7?'
p3202
tp3203
Rp3204
sg34
g3201
sa(dp3205
g6
g7
(g11
S'\x9c\x908gY5\xd3?'
p3206
tp3207
Rp3208
sg17
I318
sg18
F0.2905509599096555
sg19
g3208
sg20
F95.88181677018632
sg21
g7
(g24
S'\x00\x00\x00\x00'
p3209
tp3210
Rp3211
sg30
g7
(g11
S'>\x11\x96\xf8\xd23\xc9?'
p3212
tp3213
Rp3214
sg34
g3211
sa(dp3215
g6
g7
(g11
S'%\xe2\x0f\xf9\xf9\x1f\xd6?'
p3216
tp3217
Rp3218
sg17
I319
sg18
F0.26884824643955074
sg19
g3218
sg20
F88.71992132505174
sg21
g7
(g24
S'\x00\x00\x00\x00'
p3219
tp3220
Rp3221
sg30
g7
(g11
S'\xa3\xd5a*\x868\xca?'
p3222
tp3223
Rp3224
sg34
g3221
sa(dp3225
g6
g7
(g11
S'\xe0\x81\xb9*Z\xb0\xd5?'
p3226
tp3227
Rp3228
sg17
I320
sg18
F0.26978840266014187
sg19
g3228
sg20
F89.03017287784681
sg21
g7
(g24
S'\x00\x00\x00\x00'
p3229
tp3230
Rp3231
sg30
g7
(g11
S'\x00T\xdc~`\xf8\xc9?'
p3232
tp3233
Rp3234
sg34
g3231
sa(dp3235
g6
g7
(g11
S'3\xd2\xef\xcf!4\xd5?'
p3236
tp3237
Rp3238
sg17
I321
sg18
F0.2594471108601543
sg19
g3238
sg20
F85.61754658385092
sg21
g7
(g24
S'\x00\x00\x00\x00'
p3239
tp3240
Rp3241
sg30
g7
(g11
S'I|R\xe9\x9b4\xc9?'
p3242
tp3243
Rp3244
sg34
g3241
sa(dp3245
g6
g7
(g11
S'\x83\x0b\xe7\x86>\x92\xd7?'
p3246
tp3247
Rp3248
sg17
I322
sg18
F0.2682451089570654
sg19
g3248
sg20
F88.52088595583157
sg21
g7
(g24
S'\x00\x00\x00\x00'
p3249
tp3250
Rp3251
sg30
g7
(g11
S'\x91\xc0P\n\xc8(\xcb?'
p3252
tp3253
Rp3254
sg34
g3251
sa(dp3255
g6
g7
(g11
S's\xf3Y\x0f\xe0\xf1\xd2?'
p3256
tp3257
Rp3258
sg17
I323
sg18
F0.2737799987452161
sg19
g3258
sg20
F90.34739958592131
sg21
g7
(g24
S'\x00\x00\x00\x00'
p3259
tp3260
Rp3261
sg30
g7
(g11
S'\xd2q\rg\xa8O\xc8?'
p3262
tp3263
Rp3264
sg34
g3261
sa(dp3265
g6
g7
(g11
S'`D7t\x7f\x12\xd7?'
p3266
tp3267
Rp3268
sg17
I324
sg18
F0.269855305644436
sg19
g3268
sg20
F89.05225086266388
sg21
g7
(g24
S'\x00\x00\x00\x00'
p3269
tp3270
Rp3271
sg30
g7
(g11
S'X\x07\x8bm4\xe5\xca?'
p3272
tp3273
Rp3274
sg34
g3271
sa(dp3275
g6
g7
(g11
S'\xf7\x1e\xbf\xa5*v\xd1?'
p3276
tp3277
Rp3278
sg17
I325
sg18
F0.2852777260179435
sg19
g3278
sg20
F94.14164958592136
sg21
g7
(g24
S'\x00\x00\x00\x00'
p3279
tp3280
Rp3281
sg30
g7
(g11
S'\xe6\xc8\x15\xc5\x1a\xd0\xc7?'
p3282
tp3283
Rp3284
sg34
g3281
sa(dp3285
g6
g7
(g11
S'#Bk\x91\xbd}\xd3?'
p3286
tp3287
Rp3288
sg17
I326
sg18
F0.3154397672375934
sg19
g3288
sg20
F104.09512318840584
sg21
g7
(g24
S'\x00\x00\x00\x00'
p3289
tp3290
Rp3291
sg30
g7
(g11
S'&\xf4\xa2\xe5\xefs\xca?'
p3292
tp3293
Rp3294
sg34
g3291
sa(dp3295
g6
g7
(g11
S'6U\xb1e6"\xd4?'
p3296
tp3297
Rp3298
sg17
I327
sg18
F0.2850402816989775
sg19
g3298
sg20
F94.06329296066257
sg21
g7
(g24
S'\x00\x00\x00\x00'
p3299
tp3300
Rp3301
sg30
g7
(g11
S':Q\x1e\xa9\x8a\x95\xc9?'
p3302
tp3303
Rp3304
sg34
g3301
sa(dp3305
g6
g7
(g11
S'\xa1\xa8\xe9\xc5\xdf\x07\xd3?'
p3306
tp3307
Rp3308
sg17
I328
sg18
F0.26734392684610075
sg19
g3308
sg20
F88.22349585921324
sg21
g7
(g24
S'\x00\x00\x00\x00'
p3309
tp3310
Rp3311
sg30
g7
(g11
S'\x024\nQ\x06\x18\xc8?'
p3312
tp3313
Rp3314
sg34
g3311
sa(dp3315
g6
g7
(g11
S'nFI!\xca\x9a\xd8?'
p3316
tp3317
Rp3318
sg17
I329
sg18
F0.27671479939142984
sg19
g3318
sg20
F91.31588379917186
sg21
g7
(g24
S'\x00\x00\x00\x00'
p3319
tp3320
Rp3321
sg30
g7
(g11
S'\x0c\x9dy\x14\xa85\xcc?'
p3322
tp3323
Rp3324
sg34
g3321
sa(dp3325
g6
g7
(g11
S'\x97\xe4\xf09\x01\xba\xd5?'
p3326
tp3327
Rp3328
sg17
I330
sg18
F0.26297611205219895
sg19
g3328
sg20
F86.78211697722566
sg21
g7
(g24
S'\x00\x00\x00\x00'
p3329
tp3330
Rp3331
sg30
g7
(g11
S'\xfc\xb6\xc6Rg\xb4\xc9?'
p3332
tp3333
Rp3334
sg34
g3331
sa(dp3335
g6
g7
(g11
S'W\x8c\xfa\xa5Dr\xd4?'
p3336
tp3337
Rp3338
sg17
I331
sg18
F0.31197801461823205
sg19
g3338
sg20
F102.95274482401658
sg21
g7
(g24
S'\x00\x00\x00\x00'
p3339
tp3340
Rp3341
sg30
g7
(g11
S"'<\xf6\xda$\xf1\xca?"
p3342
tp3343
Rp3344
sg34
g3341
sa(dp3345
g6
g7
(g11
S'\xcc\x0b\xe8\xd8\x1e\x86\xd4?'
p3346
tp3347
Rp3348
sg17
I332
sg18
F0.2828022899805509
sg19
g3348
sg20
F93.32475569358179
sg21
g7
(g24
S'\x00\x00\x00\x00'
p3349
tp3350
Rp3351
sg30
g7
(g11
S'}\x94\xb8\xbf\xb3\xbf\xc9?'
p3352
tp3353
Rp3354
sg34
g3351
sa(dp3355
g6
g7
(g11
S'\x93D\x94B\x92\x0c\xce?'
p3356
tp3357
Rp3358
sg17
I333
sg18
F0.29462902890185505
sg19
g3358
sg20
F97.22757953761216
sg21
g7
(g24
S'\x00\x00\x00\x00'
p3359
tp3360
Rp3361
sg30
g7
(g11
S'\xaai\xca:S\x96\xc6?'
p3362
tp3363
Rp3364
sg34
g3361
sa(dp3365
g6
g7
(g11
S'\x80\x1e\xbb\xdf\xcc\xfe\xd2?'
p3366
tp3367
Rp3368
sg17
I334
sg18
F0.28744030836313456
sg19
g3368
sg20
F94.8553017598344
sg21
g7
(g24
S'\x00\x00\x00\x00'
p3369
tp3370
Rp3371
sg30
g7
(g11
S'\x83\xe0\xd0E{\xed\xc8?'
p3372
tp3373
Rp3374
sg34
g3371
sa(dp3375
g6
g7
(g11
S'\xae\xa0I\xb0\xb3\x83\xd4?'
p3376
tp3377
Rp3378
sg17
I335
sg18
F0.282608707677186
sg19
g3378
sg20
F93.26087353347137
sg21
g7
(g24
S'\x00\x00\x00\x00'
p3379
tp3380
Rp3381
sg30
g7
(g11
S'4c]\xae\xf9\xbb\xc9?'
p3382
tp3383
Rp3384
sg34
g3381
sa(dp3385
g6
g7
(g11
S'y\xcf6\xeb\x89\x95\xd3?'
p3386
tp3387
Rp3388
sg17
I336
sg18
F0.2865454231758579
sg19
g3388
sg20
F94.55998964803311
sg21
g7
(g24
S'\x00\x00\x00\x00'
p3389
tp3390
Rp3391
sg30
g7
(g11
S'B\xd9\xb3\x053H\xc9?'
p3392
tp3393
Rp3394
sg34
g3391
sa(dp3395
g6
g7
(g11
S'\xe0k0\xf6\xbf>\xd2?'
p3396
tp3397
Rp3398
sg17
I337
sg18
F0.3097290634084112
sg19
g3398
sg20
F102.2105909247757
sg21
g7
(g24
S'\x00\x00\x00\x00'
p3399
tp3400
Rp3401
sg30
g7
(g11
S'\x8e\xe6s\x8a\xe6`\xc9?'
p3402
tp3403
Rp3404
sg34
g3401
sa(dp3405
g6
g7
(g11
S'\x8b\xf6dF\x99\x81\xd2?'
p3406
tp3407
Rp3408
sg17
I338
sg18
F0.274289810632202
sg19
g3408
sg20
F90.51563750862665
sg21
g7
(g24
S'\x00\x00\x00\x00'
p3409
tp3410
Rp3411
sg30
g7
(g11
S'>\xbdO\x15`\n\xc8?'
p3412
tp3413
Rp3414
sg34
g3411
sa(dp3415
g6
g7
(g11
S'\x92i?L\xd9=\xd5?'
p3416
tp3417
Rp3418
sg17
I339
sg18
F0.266753474182822
sg19
g3418
sg20
F88.02864648033128
sg21
g7
(g24
S'\x00\x00\x00\x00'
p3419
tp3420
Rp3421
sg30
g7
(g11
S'\x1d\x8d\xc8N\xe4\x8a\xc9?'
p3422
tp3423
Rp3424
sg34
g3421
sa(dp3425
g6
g7
(g11
S'\x04\x02\x80h\xb1\xbf\xd3?'
p3426
tp3427
Rp3428
sg17
I340
sg18
F0.2838585011606752
sg19
g3428
sg20
F93.67330538302281
sg21
g7
(g24
S'\x00\x00\x00\x00'
p3429
tp3430
Rp3431
sg30
g7
(g11
S'#\x8b\x87+\xf4F\xc9?'
p3432
tp3433
Rp3434
sg34
g3431
sa(dp3435
g6
g7
(g11
S'\x8d:}\n\x15\xba\xd7?'
p3436
tp3437
Rp3438
sg17
I341
sg18
F0.26349930986887504
sg19
g3438
sg20
F86.95477225672876
sg21
g7
(g24
S'\x00\x00\x00\x00'
p3439
tp3440
Rp3441
sg30
g7
(g11
S'J\xc8d\xd5\x80\x0f\xcb?'
p3442
tp3443
Rp3444
sg34
g3441
sa(dp3445
g6
g7
(g11
S'\xb6\xbe\xef_\xd2\xe3\xd2?'
p3446
tp3447
Rp3448
sg17
I342
sg18
F0.2839019653052263
sg19
g3448
sg20
F93.68764855072469
sg21
g7
(g24
S'\x00\x00\x00\x00'
p3449
tp3450
Rp3451
sg30
g7
(g11
S'\xd0\x16\x00\x04\xd9\xb4\xc8?'
p3452
tp3453
Rp3454
sg34
g3451
sa(dp3455
g6
g7
(g11
S'R\xcd\x84\xa8\x90\x12\xd1?'
p3456
tp3457
Rp3458
sg17
I343
sg18
F0.29494144969362357
sg19
g3458
sg20
F97.33067839889578
sg21
g7
(g24
S'\x00\x00\x00\x00'
p3459
tp3460
Rp3461
sg30
g7
(g11
S'.\xbe\x1f\xd7A\xf7\xc7?'
p3462
tp3463
Rp3464
sg34
g3461
sa(dp3465
g6
g7
(g11
S'afc&\x86\xce\xd5?'
p3466
tp3467
Rp3468
sg17
I344
sg18
F0.2589483970136145
sg19
g3468
sg20
F85.45297101449277
sg21
g7
(g24
S'\x00\x00\x00\x00'
p3469
tp3470
Rp3471
sg30
g7
(g11
S'dV\x03\xf7\x16\x96\xc9?'
p3472
tp3473
Rp3474
sg34
g3471
sa(dp3475
g6
g7
(g11
S'A\x08\x1b\xde\xb0\x19\xd4?'
p3476
tp3477
Rp3478
sg17
I345
sg18
F0.2574573373486417
sg19
g3478
sg20
F84.96092132505176
sg21
g7
(g24
S'\x00\x00\x00\x00'
p3479
tp3480
Rp3481
sg30
g7
(g11
S'\x923\x13\xce\x94b\xc8?'
p3482
tp3483
Rp3484
sg34
g3481
sa(dp3485
g6
g7
(g11
S'\x15Fn\x98i$\xd2?'
p3486
tp3487
Rp3488
sg17
I346
sg18
F0.3055527971223624
sg19
g3488
sg20
F100.83242305037959
sg21
g7
(g24
S'\x00\x00\x00\x00'
p3489
tp3490
Rp3491
sg30
g7
(g11
S'\x83om\xf1\xb9!\xc9?'
p3492
tp3493
Rp3494
sg34
g3491
sa(dp3495
g6
g7
(g11
S'\xcf/\xdd\xb8(^\xd7?'
p3496
tp3497
Rp3498
sg17
I347
sg18
F0.2928347386912605
sg19
g3498
sg20
F96.63546376811595
sg21
g7
(g24
S'\x00\x00\x00\x00'
p3499
tp3500
Rp3501
sg30
g7
(g11
S'x\xc1\xe0l\xa4\x12\xcc?'
p3502
tp3503
Rp3504
sg34
g3501
sa(dp3505
g6
g7
(g11
S'Z\xbf\x84N\x12\x17\xd1?'
p3506
tp3507
Rp3508
sg17
I348
sg18
F0.28110381611142476
sg19
g3508
sg20
F92.76425931677016
sg21
g7
(g24
S'\x00\x00\x00\x00'
p3509
tp3510
Rp3511
sg30
g7
(g11
S'\xdeH\x82\x1c\x1ec\xc7?'
p3512
tp3513
Rp3514
sg34
g3511
sa(dp3515
g6
g7
(g11
S'W\x03\xb7s\xeb\xdc\xd4?'
p3516
tp3517
Rp3518
sg17
I349
sg18
F0.2604666645753602
sg19
g3518
sg20
F85.95399930986888
sg21
g7
(g24
S'\x00\x00\x00\x00'
p3519
tp3520
Rp3521
sg30
g7
(g11
S'\xdar\xd1\x8c\x9a\x05\xc9?'
p3522
tp3523
Rp3524
sg34
g3521
sa(dp3525
g6
g7
(g11
S'A#\xabY\xd7I\xd5?'
p3526
tp3527
Rp3528
sg17
I350
sg18
F0.2811813037204342
sg19
g3528
sg20
F92.7898302277433
sg21
g7
(g24
S'\x00\x00\x00\x00'
p3529
tp3530
Rp3531
sg30
g7
(g11
S'Z\x10\x11%z0\xca?'
p3532
tp3533
Rp3534
sg34
g3531
sa(dp3535
g6
g7
(g11
S'\x94!"\x87\xbc_\xd5?'
p3536
tp3537
Rp3538
sg17
I351
sg18
F0.2623369220151829
sg19
g3538
sg20
F86.57118426501034
sg21
g7
(g24
S'\x00\x00\x00\x00'
p3539
tp3540
Rp3541
sg30
g7
(g11
S'.\xdd/8>q\xc9?'
p3542
tp3543
Rp3544
sg34
g3541
sa(dp3545
g6
g7
(g11
S'\xcc8\xc1i%K\xd5?'
p3546
tp3547
Rp3548
sg17
I352
sg18
F0.29034833584290104
sg19
g3548
sg20
F95.81495082815734
sg21
g7
(g24
S'\x00\x00\x00\x00'
p3549
tp3550
Rp3551
sg30
g7
(g11
S'\x94\xed\xa6\xbby\x95\xca?'
p3552
tp3553
Rp3554
sg34
g3551
sa(dp3555
g6
g7
(g11
S'\x8c\x8aF\xa6H\xff\xd1?'
p3556
tp3557
Rp3558
sg17
I353
sg18
F0.29597120114185327
sg19
g3558
sg20
F97.67049637681157
sg21
g7
(g24
S'\x00\x00\x00\x00'
p3559
tp3560
Rp3561
sg30
g7
(g11
S'\tim:Q\xa0\xc8?'
p3562
tp3563
Rp3564
sg34
g3561
sa(dp3565
g6
g7
(g11
S'\xecC\x06\xde\xe4+\xce?'
p3566
tp3567
Rp3568
sg17
I354
sg18
F0.3000706192358366
sg19
g3568
sg20
F99.02330434782608
sg21
g7
(g24
S'\x00\x00\x00\x00'
p3569
tp3570
Rp3571
sg30
g7
(g11
S'\xd8\x0b\\\xe33\xdc\xc6?'
p3572
tp3573
Rp3574
sg34
g3571
sa(dp3575
g6
g7
(g11
S'\xd2\xe3\x90\x1dh\x0c\xcf?'
p3576
tp3577
Rp3578
sg17
I355
sg18
F0.2809626607691826
sg19
g3578
sg20
F92.71767805383026
sg21
g7
(g24
S'\x00\x00\x00\x00'
p3579
tp3580
Rp3581
sg30
g7
(g11
S'5\x10l\x94TV\xc6?'
p3582
tp3583
Rp3584
sg34
g3581
sa(dp3585
g6
g7
(g11
S'|\xe2\x92\xf5M\xe4\xd6?'
p3586
tp3587
Rp3588
sg17
I356
sg18
F0.27146416023589937
sg19
g3588
sg20
F89.58317287784679
sg21
g7
(g24
S'\x00\x00\x00\x00'
p3589
tp3590
Rp3591
sg30
g7
(g11
S'\x95\xe4\xc1r\xfb\xd7\xca?'
p3592
tp3593
Rp3594
sg34
g3591
sa(dp3595
g6
g7
(g11
S'\x85f\x99e\x14\x17\xd2?'
p3596
tp3597
Rp3598
sg17
I357
sg18
F0.28701883430579084
sg19
g3598
sg20
F94.71621532091098
sg21
g7
(g24
S'\x00\x00\x00\x00'
p3599
tp3600
Rp3601
sg30
g7
(g11
S'\xb2\x96\xd8\xc2eN\xc8?'
p3602
tp3603
Rp3604
sg34
g3601
sa(dp3605
g6
g7
(g11
S'\xbc\xf0\xb5\x97\xdb\x87\xcf?'
p3606
tp3607
Rp3608
sg17
I358
sg18
F0.28557176318045885
sg19
g3608
sg20
F94.23868184955141
sg21
g7
(g24
S'\x00\x00\x00\x00'
p3609
tp3610
Rp3611
sg30
g7
(g11
S'Y\x8c}\x0e\xd3\xb1\xc6?'
p3612
tp3613
Rp3614
sg34
g3611
sa(dp3615
g6
g7
(g11
S'\x9f\xd0\x95\x12\rT\xd3?'
p3616
tp3617
Rp3618
sg17
I359
sg18
F0.30713016029863865
sg19
g3618
sg20
F101.35295289855075
sg21
g7
(g24
S'\x00\x00\x00\x00'
p3619
tp3620
Rp3621
sg30
g7
(g11
S'N\xb8\x12\x8ea\xfd\xc9?'
p3622
tp3623
Rp3624
sg34
g3621
sa(dp3625
g6
g7
(g11
S'L8i2\xf0\xd6\xd2?'
p3626
tp3627
Rp3628
sg17
I360
sg18
F0.29363005913168977
sg19
g3628
sg20
F96.89791951345762
sg21
g7
(g24
S'\x00\x00\x00\x00'
p3629
tp3630
Rp3631
sg30
g7
(g11
S'\x04\x1f\xca\xf3\x83\x16\xc9?'
p3632
tp3633
Rp3634
sg34
g3631
sa(dp3635
g6
g7
(g11
S'\xfc.0\xb4\x15%\xd0?'
p3636
tp3637
Rp3638
sg17
I361
sg18
F0.2921377627203714
sg19
g3638
sg20
F96.40546169772256
sg21
g7
(g24
S'\x00\x00\x00\x00'
p3639
tp3640
Rp3641
sg30
g7
(g11
S'\x9a\n\x981P:\xc7?'
p3642
tp3643
Rp3644
sg34
g3641
sa(dp3645
g6
g7
(g11
S'\xeaDX4\xc3+\xd2?'
p3646
tp3647
Rp3648
sg17
I362
sg18
F0.2786093998996173
sg19
g3648
sg20
F91.9411019668737
sg21
g7
(g24
S'\x00\x00\x00\x00'
p3649
tp3650
Rp3651
sg30
g7
(g11
S'afb&U\x00\xc8?'
p3652
tp3653
Rp3654
sg34
g3651
sa(dp3655
g6
g7
(g11
S'\xf3\xc5\xf2\x9f:c\xd7?'
p3656
tp3657
Rp3658
sg17
I363
sg18
F0.2708285123491646
sg19
g3658
sg20
F89.37340907522432
sg21
g7
(g24
S'\x00\x00\x00\x00'
p3659
tp3660
Rp3661
sg30
g7
(g11
S'\x16a1\xd3\xa7%\xcb?'
p3662
tp3663
Rp3664
sg34
g3661
sa(dp3665
g6
g7
(g11
S'\xa1<\xe2\xc67\xd4\xcd?'
p3666
tp3667
Rp3668
sg17
I364
sg18
F0.29627448397013617
sg19
g3668
sg20
F97.77057971014494
sg21
g7
(g24
S'\x00\x00\x00\x00'
p3669
tp3670
Rp3671
sg30
g7
(g11
S'\xd4~\x82m\x83\x95\xc6?'
p3672
tp3673
Rp3674
sg34
g3671
sa(dp3675
g6
g7
(g11
S'\x98\xb7\x9b^\xfa0\xd5?'
p3676
tp3677
Rp3678
sg17
I365
sg18
F0.2798937825459565
sg19
g3678
sg20
F92.36494824016563
sg21
g7
(g24
S'\x00\x00\x00\x00'
p3679
tp3680
Rp3681
sg30
g7
(g11
S'{dx\xa7\xd6\x11\xca?'
p3682
tp3683
Rp3684
sg34
g3681
sa(dp3685
g6
g7
(g11
S'F\x02\xcb\x92\xd2\x8c\xce?'
p3686
tp3687
Rp3688
sg17
I366
sg18
F0.31162688217579526
sg19
g3688
sg20
F102.83687111801244
sg21
g7
(g24
S'\x00\x00\x00\x00'
p3689
tp3690
Rp3691
sg30
g7
(g11
S'$\xfb\xd8\xc6\xbcz\xc7?'
p3692
tp3693
Rp3694
sg34
g3691
sa(dp3695
g6
g7
(g11
S'\x85\r\xa8F\xd0\xe7\xcd?'
p3696
tp3697
Rp3698
sg17
I367
sg18
F0.29816476096367406
sg19
g3698
sg20
F98.39437111801244
sg21
g7
(g24
S'\x00\x00\x00\x00'
p3699
tp3700
Rp3701
sg30
g7
(g11
S'\x96\x1e\x141\xb1\xb0\xc6?'
p3702
tp3703
Rp3704
sg34
g3701
sa(dp3705
g6
g7
(g11
S'\x05\x9f\x8b\xba-\x90\xd0?'
p3706
tp3707
Rp3708
sg17
I368
sg18
F0.28975352019156375
sg19
g3708
sg20
F95.61866166321603
sg21
g7
(g24
S'\x00\x00\x00\x00'
p3709
tp3710
Rp3711
sg30
g7
(g11
S'.[\xe2\xb7\xaag\xc7?'
p3712
tp3713
Rp3714
sg34
g3711
sa(dp3715
g6
g7
(g11
S'\xe5\x1aV\x13\xab\xca\xd2?'
p3716
tp3717
Rp3718
sg17
I369
sg18
F0.3148486030072988
sg19
g3718
sg20
F103.9000389924086
sg21
g7
(g24
S'\x00\x00\x00\x00'
p3719
tp3720
Rp3721
sg30
g7
(g11
S'\x98\xa9h8\x19\xf6\xc9?'
p3722
tp3723
Rp3724
sg34
g3721
sa(dp3725
g6
g7
(g11
S'\xbf\x04.\xf3\xa2\xfc\xd1?'
p3726
tp3727
Rp3728
sg17
I370
sg18
F0.28317321036451476
sg19
g3728
sg20
F93.44715942028988
sg21
g7
(g24
S'\x00\x00\x00\x00'
p3729
tp3730
Rp3731
sg30
g7
(g11
S'ik\x0e\xa7\xc3\x12\xc8?'
p3732
tp3733
Rp3734
sg34
g3731
sa(dp3735
g6
g7
(g11
S'\x82\xcc\xeb\x81@\xd8\xd3?'
p3736
tp3737
Rp3738
sg17
I371
sg18
F0.28148065750674445
sg19
g3738
sg20
F92.88861697722567
sg21
g7
(g24
S'\x00\x00\x00\x00'
p3739
tp3740
Rp3741
sg30
g7
(g11
S'-\xa6\x05\xa3Z=\xc9?'
p3742
tp3743
Rp3744
sg34
g3741
sa(dp3745
g6
g7
(g11
S'L\x8d\xe8\xf98\x16\xd8?'
p3746
tp3747
Rp3748
sg17
I372
sg18
F0.27732219398958524
sg19
g3748
sg20
F91.51632401656313
sg21
g7
(g24
S'\x00\x00\x00\x00'
p3749
tp3750
Rp3751
sg30
g7
(g11
S'I\xaf\x8b\xb5\xe9\xe3\xcb?'
p3752
tp3753
Rp3754
sg34
g3751
sa(dp3755
g6
g7
(g11
S'*\xa1xN\x94]\xd5?'
p3756
tp3757
Rp3758
sg17
I373
sg18
F0.268061682037769
sg19
g3758
sg20
F88.46035507246377
sg21
g7
(g24
S'\x00\x00\x00\x00'
p3759
tp3760
Rp3761
sg30
g7
(g11
S'(\nB\xa9U\xae\xc9?'
p3762
tp3763
Rp3764
sg34
g3761
sa(dp3765
g6
g7
(g11
S'n\x05y\x85\x99\xd2\xd3?'
p3766
tp3767
Rp3768
sg17
I374
sg18
F0.2749375054896794
sg19
g3768
sg20
F90.7293768115942
sg21
g7
(g24
S'\x00\x00\x00\x00'
p3769
tp3770
Rp3771
sg30
g7
(g11
S'\x83\x9e\x11\x00\x1e\xf2\xc8?'
p3772
tp3773
Rp3774
sg34
g3771
sa(dp3775
g6
g7
(g11
S'\xc1\x8a\x87\xab\xf4\x1a\xd1?'
p3776
tp3777
Rp3778
sg17
I375
sg18
F0.3052642543446893
sg19
g3778
sg20
F100.73720393374747
sg21
g7
(g24
S'\x00\x00\x00\x00'
p3779
tp3780
Rp3781
sg30
g7
(g11
S'^\x16\x87\x80\x9am\xc8?'
p3782
tp3783
Rp3784
sg34
g3781
sa(dp3785
g6
g7
(g11
S'-\x1a\x8d}\xf0\xb0\xce?'
p3786
tp3787
Rp3788
sg17
I376
sg18
F0.2964813816215991
sg19
g3788
sg20
F97.8388559351277
sg21
g7
(g24
S'\x00\x00\x00\x00'
p3789
tp3790
Rp3791
sg30
g7
(g11
S'\xd8_,\xdcX\xe1\xc6?'
p3792
tp3793
Rp3794
sg34
g3791
sa(dp3795
g6
g7
(g11
S'k\xd6+\x06-\xa5\xd2?'
p3796
tp3797
Rp3798
sg17
I377
sg18
F0.2747286310308051
sg19
g3798
sg20
F90.66044824016568
sg21
g7
(g24
S'\x00\x00\x00\x00'
p3799
tp3800
Rp3801
sg30
g7
(g11
S'Rs_\xf2\xe2&\xc8?'
p3802
tp3803
Rp3804
sg34
g3801
sa(dp3805
g6
g7
(g11
S'3\x14uy*\xe3\xd4?'
p3806
tp3807
Rp3808
sg17
I378
sg18
F0.2743961572244182
sg19
g3808
sg20
F90.550731884058
sg21
g7
(g24
S'\x00\x00\x00\x00'
p3809
tp3810
Rp3811
sg30
g7
(g11
S'\xe6D\xe0?\xea\xa1\xc9?'
p3812
tp3813
Rp3814
sg34
g3811
sa(dp3815
g6
g7
(g11
S'K\xd3\xe9\x08\x80\x89\xd0?'
p3816
tp3817
Rp3818
sg17
I379
sg18
F0.29822419693832747
sg19
g3818
sg20
F98.41398498964806
sg21
g7
(g24
S'\x00\x00\x00\x00'
p3819
tp3820
Rp3821
sg30
g7
(g11
S'\xd4\xdb\xba\xa6\xbc\xbf\xc7?'
p3822
tp3823
Rp3824
sg34
g3821
sa(dp3825
g6
g7
(g11
S'h,K0\xbbG\xd2?'
p3826
tp3827
Rp3828
sg17
I380
sg18
F0.29117783267457203
sg19
g3828
sg20
F96.08868478260878
sg21
g7
(g24
S'\x00\x00\x00\x00'
p3829
tp3830
Rp3831
sg30
g7
(g11
S'\x03\x80\xa3[B\x9c\xc8?'
p3832
tp3833
Rp3834
sg34
g3831
sa(dp3835
g6
g7
(g11
S'\x98oT\xc2:\x99\xd2?'
p3836
tp3837
Rp3838
sg17
I381
sg18
F0.28364724574941974
sg19
g3838
sg20
F93.60359109730851
sg21
g7
(g24
S'\x00\x00\x00\x00'
p3839
tp3840
Rp3841
sg30
g7
(g11
S'\x00\xa5\x91[V\x80\xc8?'
p3842
tp3843
Rp3844
sg34
g3841
sa(dp3845
g6
g7
(g11
S'\xe3\x11\xb3\x9eQ7\xd8?'
p3846
tp3847
Rp3848
sg17
I382
sg18
F0.2684179946462553
sg19
g3848
sg20
F88.57793823326426
sg21
g7
(g24
S'\x00\x00\x00\x00'
p3849
tp3850
Rp3851
sg30
g7
(g11
S'\xe0[>1\xb8\x98\xcb?'
p3852
tp3853
Rp3854
sg34
g3851
sa(dp3855
g6
g7
(g11
S'?\x1a3\x80\xdek\xd0?'
p3856
tp3857
Rp3858
sg17
I383
sg18
F0.2763056590752243
sg19
g3858
sg20
F91.18086749482403
sg21
g7
(g24
S'\x00\x00\x00\x00'
p3859
tp3860
Rp3861
sg30
g7
(g11
S'\x08\xfd^\xf4\x92\xbc\xc6?'
p3862
tp3863
Rp3864
sg34
g3861
sa(dp3865
g6
g7
(g11
S'\xb4\x1d\xdef\x01\x90\xd5?'
p3866
tp3867
Rp3868
sg17
I384
sg18
F0.2756017190538929
sg19
g3868
sg20
F90.94856728778467
sg21
g7
(g24
S'\x00\x00\x00\x00'
p3869
tp3870
Rp3871
sg30
g7
(g11
S'X6A2O"\xca?'
p3872
tp3873
Rp3874
sg34
g3871
sa(dp3875
g6
g7
(g11
S'\xdc\x1b~V\xd9\\\xd3?'
p3876
tp3877
Rp3878
sg17
I385
sg18
F0.3077564637053768
sg19
g3878
sg20
F101.55963302277435
sg21
g7
(g24
S'\x00\x00\x00\x00'
p3879
tp3880
Rp3881
sg30
g7
(g11
S'\xb4\x9e\x1eV\x16\n\xca?'
p3882
tp3883
Rp3884
sg34
g3881
sa(dp3885
g6
g7
(g11
S'6s\xb6\xf8&\xd6\xd5?'
p3886
tp3887
Rp3888
sg17
I386
sg18
F0.3102820555450991
sg19
g3888
sg20
F102.3930783298827
sg21
g7
(g24
S'\x00\x00\x00\x00'
p3889
tp3890
Rp3891
sg30
g7
(g11
S'X\xa5\xa8(\xe0\xcb\xcb?'
p3892
tp3893
Rp3894
sg34
g3891
sa(dp3895
g6
g7
(g11
S'\x84Vd\x1b\x12>\xd5?'
p3896
tp3897
Rp3898
sg17
I387
sg18
F0.27017293274358484
sg19
g3898
sg20
F89.157067805383
sg21
g7
(g24
S'\x00\x00\x00\x00'
p3899
tp3900
Rp3901
sg30
g7
(g11
S'_\x8b\xfe\xadc\xb0\xc9?'
p3902
tp3903
Rp3904
sg34
g3901
sa(dp3905
g6
g7
(g11
S'\xce1\xbca\xb9\xd2\xd6?'
p3906
tp3907
Rp3908
sg17
I388
sg18
F0.27496983891712157
sg19
g3908
sg20
F90.74004684265012
sg21
g7
(g24
S'\x00\x00\x00\x00'
p3909
tp3910
Rp3911
sg30
g7
(g11
S'y\xf9\xbe\xa6\x8d\xf2\xca?'
p3912
tp3913
Rp3914
sg34
g3911
sa(dp3915
g6
g7
(g11
S'\xfd\xc6\x98\xe6AQ\xd2?'
p3916
tp3917
Rp3918
sg17
I389
sg18
F0.3083678289102203
sg19
g3918
sg20
F101.76138354037269
sg21
g7
(g24
S'\x00\x00\x00\x00'
p3919
tp3920
Rp3921
sg30
g7
(g11
S'\xf6\xa7\x1d\xe1^^\xc9?'
p3922
tp3923
Rp3924
sg34
g3921
sa(dp3925
g6
g7
(g11
S'\xa5\x93>\x0c\x93\x91\xd8?'
p3926
tp3927
Rp3928
sg17
I390
sg18
F0.2763775291737248
sg19
g3928
sg20
F91.2045846273292
sg21
g7
(g24
S'\x00\x00\x00\x00'
p3929
tp3930
Rp3931
sg30
g7
(g11
S'\x92\xcdZH\xd4+\xcc?'
p3932
tp3933
Rp3934
sg34
g3931
sa(dp3935
g6
g7
(g11
S'\xfd\x00\xd1N\x89\x94\xd2?'
p3936
tp3937
Rp3938
sg17
I391
sg18
F0.31529161176987286
sg19
g3938
sg20
F104.04623188405805
sg21
g7
(g24
S'\x00\x00\x00\x00'
p3939
tp3940
Rp3941
sg30
g7
(g11
S'\xaf\x89ks\xd9\xd6\xc9?'
p3942
tp3943
Rp3944
sg34
g3941
sa(dp3945
g6
g7
(g11
S'm\xbe\xca\xa9\xa0\x1a\xd3?'
p3946
tp3947
Rp3948
sg17
I392
sg18
F0.30909153961980057
sg19
g3948
sg20
F102.00020807453419
sg21
g7
(g24
S'\x00\x00\x00\x00'
p3949
tp3950
Rp3951
sg30
g7
(g11
S'P\xb07\xb2\x85\xec\xc9?'
p3952
tp3953
Rp3954
sg34
g3951
sa(dp3955
g6
g7
(g11
S'\xea\xbbvc\x85\x0f\xd8?'
p3956
tp3957
Rp3958
sg17
I393
sg18
F0.2651228718342848
sg19
g3958
sg20
F87.49054770531397
sg21
g7
(g24
S'\x00\x00\x00\x00'
p3959
tp3960
Rp3961
sg30
g7
(g11
S'\xde\xae\xf742Z\xcb?'
p3962
tp3963
Rp3964
sg34
g3961
sa(dp3965
g6
g7
(g11
S'\xa2\xe9_\x96\xe3\xea\xd1?'
p3966
tp3967
Rp3968
sg17
I394
sg18
F0.29375411176987276
sg19
g3968
sg20
F96.93885688405801
sg21
g7
(g24
S'\x00\x00\x00\x00'
p3969
tp3970
Rp3971
sg30
g7
(g11
S'|\xf0\xc4\x16\x81z\xc8?'
p3972
tp3973
Rp3974
sg34
g3971
sa(dp3975
g6
g7
(g11
S'\xf8\x95\xa2p\xe2\x86\xcf?'
p3976
tp3977
Rp3978
sg17
I395
sg18
F0.3001121368969196
sg19
g3978
sg20
F99.03700517598347
sg21
g7
(g24
S'\x00\x00\x00\x00'
p3979
tp3980
Rp3981
sg30
g7
(g11
S'\xeeVe\xd6QP\xc7?'
p3982
tp3983
Rp3984
sg34
g3981
sa(dp3985
g6
g7
(g11
S'\x94\xf0\xb4\x8e\xec\xde\xd0?'
p3986
tp3987
Rp3988
sg17
I396
sg18
F0.28058544137022406
sg19
g3988
sg20
F92.59319565217395
sg21
g7
(g24
S'\x00\x00\x00\x00'
p3989
tp3990
Rp3991
sg30
g7
(g11
S'6\x7f\x8a!\x068\xc7?'
p3992
tp3993
Rp3994
sg34
g3991
sa(dp3995
g6
g7
(g11
S"\xdb\xb6{\x1d\x11'\xd5?"
p3996
tp3997
Rp3998
sg17
I397
sg18
F0.2651321459941025
sg19
g3998
sg20
F87.49360817805382
sg21
g7
(g24
S'\x00\x00\x00\x00'
p3999
tp4000
Rp4001
sg30
g7
(g11
S'G\xc3\xae\x9f\xfei\xc9?'
p4002
tp4003
Rp4004
sg34
g4001
sa(dp4005
g6
g7
(g11
S'\xcd>`\xab7h\xd4?'
p4006
tp4007
Rp4008
sg17
I398
sg18
F0.30659323776062913
sg19
g4008
sg20
F101.1757684610076
sg21
g7
(g24
S'\x00\x00\x00\x00'
p4009
tp4010
Rp4011
sg30
g7
(g11
S'|a\xcf\x9b\xa0\xaf\xca?'
p4012
tp4013
Rp4014
sg34
g4011
sa(dp4015
g6
g7
(g11
S'\xb5\xb1q\xd8:F\xd3?'
p4016
tp4017
Rp4018
sg17
I399
sg18
F0.271116719994981
sg19
g4018
sg20
F89.46851759834372
sg21
g7
(g24
S'\x00\x00\x00\x00'
p4019
tp4020
Rp4021
sg30
g7
(g11
S'B\xf5\xec\xdb\xcdj\xc8?'
p4022
tp4023
Rp4024
sg34
g4021
sas.